
lab2.elf:     file format elf32-littlenios2
lab2.elf
architecture: nios2, flags 0x00000112:
EXEC_P, HAS_SYMS, D_PAGED
start address 0x000001b4

Program Header:
    LOAD off    0x00001020 vaddr 0x00000020 paddr 0x00000020 align 2**12
         filesz 0x0001a00c memsz 0x0001a944 flags rwx
    LOAD off    0x0001b800 vaddr 0x00900800 paddr 0x00900800 align 2**12
         filesz 0x00000000 memsz 0x00000000 flags r-x

Sections:
Idx Name          Size      VMA       LMA       File off  Algn
  0 .entry        00000000  00900800  00900800  0001b800  2**5
                  CONTENTS, ALLOC, LOAD, READONLY, CODE
  1 .exceptions   00000194  00000020  00000020  00001020  2**2
                  CONTENTS, ALLOC, LOAD, READONLY, CODE
  2 .text         00016960  000001b4  000001b4  000011b4  2**2
                  CONTENTS, ALLOC, LOAD, READONLY, CODE
  3 .rodata       00000b44  00016b14  00016b14  00017b14  2**2
                  CONTENTS, ALLOC, LOAD, READONLY, DATA
  4 .rwdata       000029d4  00017658  00017658  00018658  2**2
                  CONTENTS, ALLOC, LOAD, DATA, SMALL_DATA
  5 .bss          00000938  0001a02c  0001a02c  0001b02c  2**2
                  ALLOC, SMALL_DATA
  6 .comment      00000023  00000000  00000000  0001b800  2**0
                  CONTENTS, READONLY
  7 .debug_aranges 00000f50  00000000  00000000  0001b828  2**3
                  CONTENTS, READONLY, DEBUGGING
  8 .debug_pubnames 00001f79  00000000  00000000  0001c778  2**0
                  CONTENTS, READONLY, DEBUGGING
  9 .debug_info   0002d9c6  00000000  00000000  0001e6f1  2**0
                  CONTENTS, READONLY, DEBUGGING
 10 .debug_abbrev 00009660  00000000  00000000  0004c0b7  2**0
                  CONTENTS, READONLY, DEBUGGING
 11 .debug_line   0001ae10  00000000  00000000  00055717  2**0
                  CONTENTS, READONLY, DEBUGGING
 12 .debug_frame  000026cc  00000000  00000000  00070528  2**2
                  CONTENTS, READONLY, DEBUGGING
 13 .debug_str    000027e7  00000000  00000000  00072bf4  2**0
                  CONTENTS, READONLY, DEBUGGING
 14 .debug_loc    0000d469  00000000  00000000  000753db  2**0
                  CONTENTS, READONLY, DEBUGGING
 15 .debug_alt_sim_info 00000050  00000000  00000000  00082844  2**2
                  CONTENTS, READONLY, DEBUGGING
 16 .debug_ranges 00000970  00000000  00000000  00082898  2**3
                  CONTENTS, READONLY, DEBUGGING
 17 .thread_model 00000003  00000000  00000000  000876a2  2**0
                  CONTENTS, READONLY
 18 .cpu          00000005  00000000  00000000  000876a5  2**0
                  CONTENTS, READONLY
 19 .simulation_enabled 00000001  00000000  00000000  000876aa  2**0
                  CONTENTS, READONLY
 20 .sysid_hash   00000004  00000000  00000000  000876ab  2**0
                  CONTENTS, READONLY
 21 .sysid_base   00000004  00000000  00000000  000876af  2**0
                  CONTENTS, READONLY
 22 .sysid_time   00000004  00000000  00000000  000876b3  2**0
                  CONTENTS, READONLY
 23 .stderr_dev   0000000b  00000000  00000000  000876b7  2**0
                  CONTENTS, READONLY
 24 .stdin_dev    0000000b  00000000  00000000  000876c2  2**0
                  CONTENTS, READONLY
 25 .stdout_dev   0000000b  00000000  00000000  000876cd  2**0
                  CONTENTS, READONLY
 26 .sopc_system_name 00000006  00000000  00000000  000876d8  2**0
                  CONTENTS, READONLY
 27 .quartus_project_dir 0000002b  00000000  00000000  000876de  2**0
                  CONTENTS, READONLY
 28 .sopcinfo     0008696e  00000000  00000000  00087709  2**0
                  CONTENTS, READONLY
SYMBOL TABLE:
00900800 l    d  .entry	00000000 .entry
00000020 l    d  .exceptions	00000000 .exceptions
000001b4 l    d  .text	00000000 .text
00016b14 l    d  .rodata	00000000 .rodata
00017658 l    d  .rwdata	00000000 .rwdata
0001a02c l    d  .bss	00000000 .bss
00000000 l    d  .comment	00000000 .comment
00000000 l    d  .debug_aranges	00000000 .debug_aranges
00000000 l    d  .debug_pubnames	00000000 .debug_pubnames
00000000 l    d  .debug_info	00000000 .debug_info
00000000 l    d  .debug_abbrev	00000000 .debug_abbrev
00000000 l    d  .debug_line	00000000 .debug_line
00000000 l    d  .debug_frame	00000000 .debug_frame
00000000 l    d  .debug_str	00000000 .debug_str
00000000 l    d  .debug_loc	00000000 .debug_loc
00000000 l    d  .debug_alt_sim_info	00000000 .debug_alt_sim_info
00000000 l    d  .debug_ranges	00000000 .debug_ranges
000001f8 l       .text	00000000 alt_after_alt_main
00000000 l    df *ABS*	00000000 alt_irq_handler.c
00000000 l    df *ABS*	00000000 DM9000A.c
00000000 l    df *ABS*	00000000 LCD.c
00000000 l    df *ABS*	00000000 VGA.c
00000000 l    df *ABS*	00000000 alt_up_ps2_port.c
00000000 l    df *ABS*	00000000 chargen.c
00000000 l    df *ABS*	00000000 main.c
00001218 l     F .text	000005c4 ethernet_interrupt_handler
00000000 l    df *ABS*	00000000 ps2_keyboard.c
00000000 l    df *ABS*	00000000 printf.c
00000000 l    df *ABS*	00000000 putchar.c
00000000 l    df *ABS*	00000000 puts.c
00000000 l    df *ABS*	00000000 strlen.c
00000000 l    df *ABS*	00000000 vfprintf.c
000052b8 l     F .text	00000058 __sprint_r
000170b6 l     O .rodata	00000010 blanks.3452
000170a6 l     O .rodata	00000010 zeroes.3453
00000000 l    df *ABS*	00000000 wsetup.c
00000000 l    df *ABS*	00000000 dtoa.c
0000731c l     F .text	00000218 quorem
00000000 l    df *ABS*	00000000 fflush.c
00000000 l    df *ABS*	00000000 findfp.c
00008d18 l     F .text	00000058 std
00008e24 l     F .text	00000008 __fp_lock
00008e2c l     F .text	00000008 __fp_unlock
00000000 l    df *ABS*	00000000 mallocr.c
00000000 l    df *ABS*	00000000 fvwrite.c
00000000 l    df *ABS*	00000000 fwalk.c
00000000 l    df *ABS*	00000000 impure.c
00018234 l     O .rwdata	00000400 impure_data
00000000 l    df *ABS*	00000000 locale.c
00019fe8 l     O .rwdata	00000004 charset
000170ec l     O .rodata	00000030 lconv
00000000 l    df *ABS*	00000000 makebuf.c
00000000 l    df *ABS*	00000000 mallocr.c
00000000 l    df *ABS*	00000000 memchr.c
00000000 l    df *ABS*	00000000 memcpy.c
00000000 l    df *ABS*	00000000 memmove.c
00000000 l    df *ABS*	00000000 memset.c
00000000 l    df *ABS*	00000000 mprec.c
00017234 l     O .rodata	0000000c p05.2458
00000000 l    df *ABS*	00000000 putc.c
00000000 l    df *ABS*	00000000 mallocr.c
00000000 l    df *ABS*	00000000 s_isinfd.c
00000000 l    df *ABS*	00000000 s_isnand.c
00000000 l    df *ABS*	00000000 sbrkr.c
00000000 l    df *ABS*	00000000 stdio.c
00000000 l    df *ABS*	00000000 strcmp.c
00000000 l    df *ABS*	00000000 wbuf.c
00000000 l    df *ABS*	00000000 writer.c
00000000 l    df *ABS*	00000000 mallocr.c
00000000 l    df *ABS*	00000000 closer.c
00000000 l    df *ABS*	00000000 fclose.c
00000000 l    df *ABS*	00000000 fstatr.c
00000000 l    df *ABS*	00000000 int_errno.c
00000000 l    df *ABS*	00000000 isattyr.c
00000000 l    df *ABS*	00000000 lseekr.c
00000000 l    df *ABS*	00000000 readr.c
00000000 l    df *ABS*	00000000 libgcc2.c
00000000 l    df *ABS*	00000000 libgcc2.c
00000000 l    df *ABS*	00000000 dp-bit.c
0000d2f0 l     F .text	00000410 _fpadd_parts
00000000 l    df *ABS*	00000000 dp-bit.c
00000000 l    df *ABS*	00000000 dp-bit.c
00000000 l    df *ABS*	00000000 dp-bit.c
00000000 l    df *ABS*	00000000 dp-bit.c
00000000 l    df *ABS*	00000000 dp-bit.c
00000000 l    df *ABS*	00000000 dp-bit.c
00000000 l    df *ABS*	00000000 dp-bit.c
00000000 l    df *ABS*	00000000 dp-bit.c
00000000 l    df *ABS*	00000000 dp-bit.c
00000000 l    df *ABS*	00000000 dp-bit.c
00000000 l    df *ABS*	00000000 dp-bit.c
00000000 l    df *ABS*	00000000 lib2-divmod.c
0000e41c l     F .text	0000007c udivmodsi4
00000000 l    df *ABS*	00000000 libgcc2.c
00000000 l    df *ABS*	00000000 libgcc2.c
00000000 l    df *ABS*	00000000 libgcc2.c
00000000 l    df *ABS*	00000000 dp-bit.c
00000000 l    df *ABS*	00000000 dp-bit.c
00000000 l    df *ABS*	00000000 dp-bit.c
00000000 l    df *ABS*	00000000 alt_close.c
0000ec90 l     F .text	00000060 alt_get_errno
00000000 l    df *ABS*	00000000 alt_dev.c
0000ecf0 l     F .text	0000002c alt_dev_null_write
00000000 l    df *ABS*	00000000 alt_errno.c
00000000 l    df *ABS*	00000000 alt_fstat.c
0000edf0 l     F .text	00000060 alt_get_errno
00000000 l    df *ABS*	00000000 alt_irq_register.c
00000000 l    df *ABS*	00000000 alt_irq_vars.c
00000000 l    df *ABS*	00000000 alt_isatty.c
0000f0d0 l     F .text	00000060 alt_get_errno
00000000 l    df *ABS*	00000000 alt_lseek.c
0000f220 l     F .text	00000060 alt_get_errno
00000000 l    df *ABS*	00000000 alt_main.c
00000000 l    df *ABS*	00000000 alt_malloc_lock.c
00000000 l    df *ABS*	00000000 alt_read.c
0000f44c l     F .text	00000060 alt_get_errno
00000000 l    df *ABS*	00000000 alt_release_fd.c
00000000 l    df *ABS*	00000000 alt_sbrk.c
0001a010 l     O .rwdata	00000004 heap_end
00000000 l    df *ABS*	00000000 alt_usleep.c
00000000 l    df *ABS*	00000000 alt_write.c
0000f718 l     F .text	00000060 alt_get_errno
00000000 l    df *ABS*	00000000 alt_sys_init.c
00018bf0 l     O .rwdata	000000d8 cfi_flash_0
00018cc8 l     O .rwdata	000000c8 epcs_controller
00018d90 l     O .rwdata	00001060 jtag_uart_0
00019df0 l     O .rwdata	00000120 lcd_16207_0
00019f10 l     O .rwdata	000000c4 uart_0
0000f854 l     F .text	00000038 alt_dev_reg
00000000 l    df *ABS*	00000000 altera_avalon_cfi_flash.c
0000f928 l     F .text	00000038 alt_flash_device_register
00000000 l    df *ABS*	00000000 altera_avalon_cfi_flash_table.c
00010718 l     F .text	0000007c alt_read_16bit_query_entry
00000000 l    df *ABS*	00000000 altera_avalon_epcs_flash_controller.c
00011688 l     F .text	00000288 alt_epcs_flash_query
00011650 l     F .text	00000038 alt_flash_device_register
00011910 l     F .text	00000108 alt_epcs_flash_memcmp
00011d98 l     F .text	00000094 alt_epcs_test_address
00000000 l    df *ABS*	00000000 altera_avalon_jtag_uart_fd.c
00000000 l    df *ABS*	00000000 altera_avalon_jtag_uart_init.c
000121e8 l     F .text	00000228 altera_avalon_jtag_uart_irq
00012410 l     F .text	000000b0 altera_avalon_jtag_uart_timeout
00000000 l    df *ABS*	00000000 altera_avalon_jtag_uart_ioctl.c
00000000 l    df *ABS*	00000000 altera_avalon_jtag_uart_read.c
00000000 l    df *ABS*	00000000 altera_avalon_jtag_uart_write.c
00000000 l    df *ABS*	00000000 altera_avalon_lcd_16207.c
0001a014 l     O .rwdata	00000004 colstart
00012a8c l     F .text	000000b8 lcd_write_command
00012b44 l     F .text	000000d4 lcd_write_data
00012c18 l     F .text	000000c4 lcd_clear_screen
00012cdc l     F .text	000001ec lcd_repaint_screen
00012ec8 l     F .text	000000c8 lcd_scroll_up
00012f90 l     F .text	000002d0 lcd_handle_escape
0001376c l     F .text	000000cc alt_lcd_16207_timeout
00000000 l    df *ABS*	00000000 altera_avalon_lcd_16207_fd.c
00000000 l    df *ABS*	00000000 altera_avalon_timer_sc.c
000139cc l     F .text	00000070 alt_avalon_timer_sc_irq
00000000 l    df *ABS*	00000000 altera_avalon_uart_fd.c
00000000 l    df *ABS*	00000000 altera_avalon_uart_init.c
00013c8c l     F .text	0000009c altera_avalon_uart_irq
00013d28 l     F .text	000000e0 altera_avalon_uart_rxirq
00013e08 l     F .text	0000015c altera_avalon_uart_txirq
00000000 l    df *ABS*	00000000 altera_avalon_uart_read.c
000141f4 l     F .text	00000060 alt_get_errno
00000000 l    df *ABS*	00000000 altera_avalon_uart_write.c
0001441c l     F .text	00000060 alt_get_errno
00000000 l    df *ABS*	00000000 epcs_commands.c
000145d4 l     F .text	00000038 epcs_await_wip_released
0001460c l     F .text	00000038 epcs_test_wip
00000000 l    df *ABS*	00000000 alt_alarm_start.c
00000000 l    df *ABS*	00000000 alt_busy_sleep.c
00000000 l    df *ABS*	00000000 alt_dcache_flush.c
00000000 l    df *ABS*	00000000 alt_dev_llist_insert.c
00014f1c l     F .text	00000060 alt_get_errno
00000000 l    df *ABS*	00000000 alt_do_ctors.c
00000000 l    df *ABS*	00000000 alt_do_dtors.c
00000000 l    df *ABS*	00000000 alt_flash_dev.c
00000000 l    df *ABS*	00000000 alt_iic.c
00000000 l    df *ABS*	00000000 alt_iic_isr_register.c
00000000 l    df *ABS*	00000000 alt_io_redirect.c
000153e0 l     F .text	000000c4 alt_open_fd
00000000 l    df *ABS*	00000000 alt_open.c
0001551c l     F .text	000000dc alt_file_locked
00015780 l     F .text	00000060 alt_get_errno
00000000 l    df *ABS*	00000000 alt_tick.c
00000000 l    df *ABS*	00000000 altera_nios2_irq.c
00000000 l    df *ABS*	00000000 altera_avalon_cfi_flash_amd.c
00015d48 l     F .text	000000bc alt_write_word_amd
00015c24 l     F .text	00000124 alt_wait_for_command_to_complete_amd
00000000 l    df *ABS*	00000000 altera_avalon_cfi_flash_intel.c
00015ffc l     F .text	0000018c alt_unlock_block_intel
00016188 l     F .text	000000dc alt_write_word_intel
00000000 l    df *ABS*	00000000 altera_avalon_spi.c
00000000 l    df *ABS*	00000000 alt_find_dev.c
00000000 l    df *ABS*	00000000 alt_find_file.c
00000000 l    df *ABS*	00000000 alt_get_fd.c
00000000 l    df *ABS*	00000000 atexit.c
00000000 l    df *ABS*	00000000 ctype_.c
000174d5 l     O .rodata	00000180 _ctype_b
00000000 l    df *ABS*	00000000 exit.c
00000000 l    df *ABS*	00000000 memcmp.c
00000000 l    df *ABS*	00000000 __atexit.c
00000000 l    df *ABS*	00000000 __call_atexit.c
000168fc l     F .text	00000004 register_fini
00000000 l    df *ABS*	00000000 alt_exit.c
00016ab0 l     F .text	00000040 alt_sim_halt
0000516c g     F .text	0000001c putchar
0000aad4 g     F .text	00000094 _mprec_log10
00011c98 g     F .text	00000090 alt_epcs_flash_get_info
0000abc0 g     F .text	00000088 __any_on
0000c604 g     F .text	00000070 _isatty_r
0001720c g     O .rodata	00000028 __mprec_tinytens
0000f280 g     F .text	0000006c alt_main
00005190 g     F .text	000000a0 _puts_r
000101d8 g     F .text	00000048 alt_read_query_entry_32bit
0001a6d4 g     O .bss	00000100 alt_irq
0000c674 g     F .text	00000078 _lseek_r
0000f960 g     F .text	000002c0 alt_flash_cfi_write
0000de10 g     F .text	00000088 __eqdf2
0001a964 g       *ABS*	00000000 __alt_heap_start
00000dd0 g     F .text	00000030 read_data_reg
000050f4 g     F .text	00000044 printf
0000bf84 g     F .text	00000068 __sseek
00008d80 g     F .text	000000a4 __sinit
0000c184 g     F .text	00000130 __swbuf_r
00000d9c g     F .text	00000034 read_CE_bit
00009a58 g     F .text	00000084 _setlocale_r
00008e80 g     F .text	00000068 __sfmoreglue
0000f30c g     F .text	00000020 __malloc_unlock
00000250 g     F .text	0000004c dm9000a_ior
0000060c g     F .text	00000278 ReceivePacket
0000a550 g     F .text	000000e0 memmove
00017f04 g     O .rwdata	00000198 key_table
00008e70 g     F .text	00000010 _cleanup
0000ac48 g     F .text	000000bc _Balloc
000009e4 g     F .text	0000008c LCD_Test
0000df20 g     F .text	00000088 __gtdf2
00000000  w      *UND*	00000000 __errno
000144dc g     F .text	000000f8 epcs_sector_erase
00010364 g     F .text	00000048 alt_write_flash_command_32bit_device_16bit_mode
00000b0c g     F .text	00000058 Set_Pixel_On_Color
00900800 g     F .entry	00000000 __reset
0001a02c g     O .bss	00000004 receive_buffer_length
00004c84 g     F .text	00000078 get_multi_byte_make_code_index
0000c590 g     F .text	00000074 _fstat_r
0000fe7c g     F .text	000002d8 alt_flash_program_block
0001a050 g     O .bss	00000004 errno
00017e58 g     O .rwdata	000000aa transmit_buffer
00000338 g     F .text	000001b8 DM9000_init
00005034 g     F .text	00000064 set_keyboard_rate
0001a05c g     O .bss	00000004 alt_argv
00021fd4 g       *ABS*	00000000 _gp
0000f5c8 g     F .text	00000030 usleep
00900800 g       *ABS*	00000000 __alt_mem_epcs_controller
00005098 g     F .text	0000005c reset_keyboard
00018a70 g     O .rwdata	00000180 alt_fd_list
00017658 g     O .rwdata	00000800 font
00005188 g     F .text	00000008 _putchar_r
000147e0 g     F .text	00000064 epcs_write_status_register
0001649c g     F .text	00000094 alt_find_dev
0000a4b0 g     F .text	000000a0 memcpy
00008e64 g     F .text	0000000c _cleanup_r
0000e0b8 g     F .text	000000f8 __floatsidf
000154a4 g     F .text	00000078 alt_io_redirect
0000e030 g     F .text	00000088 __ltdf2
00000c8c g     F .text	0000004c clear_FIFO
00016b14 g       *ABS*	00000000 __DTOR_END__
00005230 g     F .text	00000014 puts
00000f38 g     F .text	000000a8 read_data_byte_with_timeout
00015984 g     F .text	00000020 altera_nios2_irq_init
00011e2c g     F .text	0000011c alt_epcs_flash_write_block
0000aa24 g     F .text	000000b0 __ratio
00012628 g     F .text	00000224 altera_avalon_jtag_uart_read
00000000  w      *UND*	00000000 malloc
00005138 g     F .text	00000034 _printf_r
0000e558 g     F .text	00000008 __udivsi3
0000f010 g     F .text	000000c0 isatty
0001711c g     O .rodata	000000c8 __mprec_tens
00009a34 g     F .text	00000008 __locale_charset
0001a044 g     O .bss	00000004 __malloc_top_pad
00001054 g     F .text	00000144 put_vga_char
00019fe4 g     O .rwdata	00000004 __mb_cur_max
00009a3c g     F .text	0000000c _localeconv_r
00019fd4 g     O .rwdata	00000006 mac_address
0000b340 g     F .text	0000003c __i2b
00009418 g     F .text	0000049c __sfvwrite_r
0000bf0c g     F .text	00000070 _sbrk_r
00015e04 g     F .text	00000084 alt_program_intel
0000c6ec g     F .text	00000078 _read_r
00014df0 g     F .text	00000078 alt_dcache_flush
00018634 g     O .rwdata	0000000c __lc_ctype
0001a004 g     O .rwdata	00000004 alt_max_fd
00010154 g     F .text	00000040 alt_read_query_entry_8bit
0000e994 g     F .text	00000138 __unpack_d
0000c46c g     F .text	00000110 _fclose_r
00000e00 g     F .text	00000034 read_num_bytes_available
00015e88 g     F .text	00000174 alt_erase_block_intel
00008ce4 g     F .text	00000034 fflush
0001809c g     O .rwdata	00000066 ascii_codes
0001a048 g     O .bss	00000004 __malloc_max_sbrked_mem
0000ee50 g     F .text	000001c0 alt_irq_register
00000d38 g     F .text	00000034 read_RI_bit
00000e60 g     F .text	00000070 write_data_byte
0000d780 g     F .text	00000074 __adddf3
00011d28 g     F .text	00000070 alt_epcs_flash_erase_block
0000a904 g     F .text	00000120 __b2d
0000cd40 g     F .text	000005b0 __umoddi3
0000f130 g     F .text	000000f0 lseek
00019fe0 g     O .rwdata	00000004 _global_impure_ptr
00014af8 g     F .text	00000058 epcs_exit_4_bytes_mode
0000b8a8 g     F .text	000005f4 _realloc_r
0001a964 g       *ABS*	00000000 __bss_end
000152e8 g     F .text	000000f8 alt_iic_isr_register
00015878 g     F .text	0000010c alt_tick
0000c764 g     F .text	000005dc __udivdi3
000171e4 g     O .rodata	00000028 __mprec_bigtens
0000b59c g     F .text	00000120 __s2b
0001a094 g     O .bss	00000640 receive_buffer
0000e288 g     F .text	00000194 __floatunsidf
0000a824 g     F .text	00000060 __mcmp
00013bc4 g     F .text	000000c8 altera_avalon_uart_init
00000e34 g     F .text	0000002c read_data_byte
0001a028 g     O .rwdata	00000004 __ctype_ptr
00008e4c g     F .text	00000018 __fp_lock_all
000152a0 g     F .text	00000048 alt_ic_irq_enabled
000157e0 g     F .text	00000098 alt_alarm_stop
00000d6c g     F .text	00000030 read_RE_bit
0001a054 g     O .bss	00000004 alt_irq_active
000000ec g     F .exceptions	000000c8 alt_irq_handler
00018a48 g     O .rwdata	00000028 alt_dev_null
00000cd8 g     F .text	00000030 write_ctrl_reg
00000a70 g     F .text	00000044 Set_Cursor_XY
0001066c g     F .text	000000ac alt_set_flash_algorithm_func
0000a6f0 g     F .text	00000070 __hi0bits
0000e1b0 g     F .text	000000d8 __fixdfsi
00010220 g     F .text	0000003c alt_write_flash_command_8bit_device_8bit_mode
000181ce g     O .rwdata	00000066 multi_byte_make_code
00019ffc g     O .rwdata	00000008 alt_dev_list
0000f5f8 g     F .text	00000120 write
0000b7c0 g     F .text	000000e8 _putc_r
0000ed1c g     F .text	000000d4 fstat
00011520 g     F .text	000000dc alt_check_primary_table
0000b47c g     F .text	00000120 __pow5mult
00000ed0 g     F .text	00000068 write_data_byte_with_ack
0001a038 g     O .bss	00000004 __nlocale_changed
0000e560 g     F .text	00000008 __umodsi3
0000fcb0 g     F .text	00000068 alt_flash_cfi_read
000103f4 g     F .text	00000034 alt_write_native_8bit
000149b4 g     F .text	0000006c epcs_read_electronic_signature
0001a964 g       *ABS*	00000000 end
0001025c g     F .text	0000007c alt_write_flash_command_16bit_device_8bit_mode
00013260 g     F .text	0000050c altera_avalon_lcd_16207_write
00014254 g     F .text	000001c8 altera_avalon_uart_write
00010794 g     F .text	000005e0 alt_read_cfi_table
00012128 g     F .text	000000c0 altera_avalon_jtag_uart_init
00016b10 g       *ABS*	00000000 __CTOR_LIST__
00800000 g       *ABS*	00000000 __alt_stack_pointer
00013a3c g     F .text	00000090 alt_avalon_timer_sc_init
00013b24 g     F .text	00000058 altera_avalon_uart_write_fd
0000e600 g     F .text	00000080 __clzsi2
00013b7c g     F .text	00000048 altera_avalon_uart_close_fd
0001284c g     F .text	00000240 altera_avalon_jtag_uart_write
0000f88c g     F .text	0000009c alt_flash_cfi_init
00008d70 g     F .text	00000004 __sfp_lock_acquire
0000a3cc g     F .text	000000e4 memchr
00005310 g     F .text	00001eac ___vfprintf_internal_r
00800000 g       *ABS*	00000000 __alt_mem_cfi_flash_0
00009104 g     F .text	00000314 _free_r
00016900 g     F .text	000001b0 __call_exitprocs
0001a03c g     O .bss	00000004 __mlocale_changed
00019ff0 g     O .rwdata	00000004 __malloc_sbrk_base
000001b4 g     F .text	00000048 _start
0001a064 g     O .bss	00000004 _alt_tick_rate
0000b00c g     F .text	0000014c __lshift
00016264 g     F .text	00000238 alt_avalon_spi_command
0001a068 g     O .bss	00000004 _alt_nticks
0000f32c g     F .text	00000120 read
0000f7ac g     F .text	000000a8 alt_sys_init
00018168 g     O .rwdata	00000066 shift_ascii_codes
000167c8 g     F .text	00000134 __register_exitproc
00010194 g     F .text	00000044 alt_read_query_entry_16bit
0000b158 g     F .text	000001e8 __multiply
000124c0 g     F .text	00000074 altera_avalon_jtag_uart_close
0001a06c g     O .bss	00000028 __malloc_current_mallinfo
0001048c g     F .text	000001e0 alt_set_flash_width_func
0000ad04 g     F .text	0000017c __d2b
0001447c g     F .text	00000060 epcs_read_status_register
00011fe0 g     F .text	00000058 altera_avalon_jtag_uart_read_fd
00016650 g     F .text	000000b8 alt_get_fd
00014ca4 g     F .text	0000014c alt_busy_sleep
00000bbc g     F .text	000000d0 get_mode
0000eacc g     F .text	000000c8 __fpcmp_parts_d
0000c3fc g     F .text	00000070 _close_r
0001a030 g     O .bss	00000004 decode_mode
00015a0c g     F .text	00000218 alt_erase_block_amd
00014a20 g     F .text	00000080 epcs_read_device_id
00016754 g     F .text	00000074 memcmp
00012090 g     F .text	00000048 altera_avalon_jtag_uart_close_fd
0001a964 g       *ABS*	00000000 __alt_stack_base
000120d8 g     F .text	00000050 altera_avalon_jtag_uart_ioctl_fd
000071e0 g     F .text	0000013c __swsetup_r
00010d74 g     F .text	000007ac alt_read_cfi_width
0000dbb8 g     F .text	00000258 __divdf3
00008ee8 g     F .text	000000f0 __sfp
0000ab68 g     F .text	00000058 __copybits
00018640 g     O .rwdata	00000408 __malloc_av_
00008d7c g     F .text	00000004 __sinit_lock_release
0000d7f4 g     F .text	000003c4 __muldf3
0000c068 g     F .text	00000060 __sread
00016530 g     F .text	00000120 alt_find_file
00014e68 g     F .text	000000b4 alt_dev_llist_insert
0000f2ec g     F .text	00000020 __malloc_lock
0000f50c g     F .text	000000bc sbrk
00008ae8 g     F .text	000001fc _fflush_r
0000c348 g     F .text	000000b4 _calloc_r
0001a018 g     O .rwdata	00000008 alt_flash_dev_list
00010320 g     F .text	00000044 alt_write_flash_command_16bit_device_16bit_mode
0001a02c g       *ABS*	00000000 __bss_start
00000884 g     F .text	0000009c LCD_Init
0000a630 g     F .text	00000098 memset
000017dc g     F .text	000034a8 main
00004cfc g     F .text	00000078 get_single_byte_make_code_index
0001a060 g     O .bss	00000004 alt_envp
0001a04c g     O .bss	00000004 __malloc_max_total_mem
00000fe0 g     F .text	00000074 wait_for_ack
00012038 g     F .text	00000058 altera_avalon_jtag_uart_write_fd
0000c2b4 g     F .text	0000001c __swbuf
00000ab4 g     F .text	00000058 Set_Cursor_Color
00013838 g     F .text	0000013c altera_avalon_lcd_16207_init
000009a8 g     F .text	0000003c LCD_Line2
0000bf7c g     F .text	00000008 __sclose
00800000 g       *ABS*	00000000 __alt_heap_limit
0000c57c g     F .text	00000014 fclose
0001a7d4 g     O .bss	00000190 _atexit0
00007534 g     F .text	000015b4 _dtoa_r
00009c8c g     F .text	00000740 _malloc_r
0001a008 g     O .rwdata	00000004 alt_errno
000103ac g     F .text	00000048 alt_write_flash_command_32bit_device_32bit_mode
0000997c g     F .text	000000b8 _fwalk
0000fd18 g     F .text	00000164 alt_write_value_to_flash
00010428 g     F .text	00000034 alt_write_native_16bit
0000b6bc g     F .text	00000104 putc
0000e498 g     F .text	00000060 __divsi3
00017240 g     O .rodata	00000014 __thenan_df
00000d08 g     F .text	00000030 read_ctrl_reg
00008fd8 g     F .text	0000012c _malloc_trim_r
00016b14 g       *ABS*	00000000 __CTOR_END__
00011a18 g     F .text	00000280 alt_epcs_flash_write
0000c0c8 g     F .text	000000bc strcmp
00016b14 g       *ABS*	00000000 __DTOR_LIST__
0000de98 g     F .text	00000088 __nedf2
00980000 g       *ABS*	00000000 __alt_mem_sram_0
0000f778 g     F .text	00000034 alt_irq_init
00000920 g     F .text	00000088 LCD_Show_Text
0000029c g     F .text	0000009c phy_write
000004f0 g     F .text	0000011c TransmitPacket
0000f4ac g     F .text	00000060 alt_release_fd
00017254 g     O .rodata	00000100 __clz_tab
0001a040 g     O .bss	00000004 _PathLocale
00016708 g     F .text	00000014 atexit
0000c2d0 g     F .text	00000078 _write_r
00009adc g     F .text	0000001c setlocale
00019fdc g     O .rwdata	00000004 _impure_ptr
0001a058 g     O .bss	00000004 alt_argc
00014fe0 g     F .text	00000064 _do_dtors
00000000 g       *ABS*	00000000 __alt_mem_sdram_0
00000020 g       .exceptions	00000000 alt_irq_entry
0000a884 g     F .text	00000080 __ulp
0000be9c g     F .text	00000040 __isinfd
00008e34 g     F .text	00000018 __fp_unlock_all
00013974 g     F .text	00000058 altera_avalon_lcd_16207_write_fd
00019ff4 g     O .rwdata	00000008 alt_fs_list
000001fc g     F .text	00000054 dm9000a_iow
000102d8 g     F .text	00000048 alt_write_flash_command_32bit_device_8bit_mode
00000b64 g     F .text	00000058 Set_Pixel_Off_Color
00009a48 g     F .text	00000010 localeconv
00014644 g     F .text	0000014c epcs_read_buffer
000115fc g     F .text	00000054 alt_epcs_flash_init
00015114 g     F .text	00000050 alt_ic_isr_register
0001a02c g       *ABS*	00000000 _edata
00013acc g     F .text	00000058 altera_avalon_uart_read_fd
0001a964 g       *ABS*	00000000 _end
00015044 g     F .text	0000007c alt_flash_open_dev
00012534 g     F .text	000000f4 altera_avalon_jtag_uart_ioctl
00015200 g     F .text	000000a0 alt_ic_irq_disable
00014aa0 g     F .text	00000058 epcs_enter_4_bytes_mode
0000bfec g     F .text	0000007c __swrite
00019fec g     O .rwdata	00000004 __malloc_trim_threshold
0001671c g     F .text	00000038 exit
0001a034 g     O .bss	00000004 interrupt_number
000098b4 g     F .text	000000c8 _fwalk_reent
0000ae80 g     F .text	0000018c __mdiff
000150c0 g     F .text	00000054 alt_flash_close_dev
0000e4f8 g     F .text	00000060 __modsi3
00800000 g       *ABS*	00000000 __alt_data_end
00000020 g     F .exceptions	00000000 alt_exception
00008d74 g     F .text	00000004 __sfp_lock_release
000173d4 g     O .rodata	00000101 _ctype_
00013f64 g     F .text	00000060 altera_avalon_uart_close
00016af0 g     F .text	00000020 _exit
0000bedc g     F .text	00000030 __isnand
00014b50 g     F .text	00000154 alt_alarm_start
0000e568 g     F .text	00000098 __muldi3
00004d74 g     F .text	00000224 get_next_state
00009af8 g     F .text	00000194 __smakebuf_r
0001045c g     F .text	00000030 alt_write_native_32bit
00005244 g     F .text	00000074 strlen
00014790 g     F .text	00000050 epcs_write_enable
000155f8 g     F .text	00000188 open
0000dfa8 g     F .text	00000088 __gedf2
0000fc20 g     F .text	00000090 alt_flash_cfi_get_info
00004f98 g     F .text	0000009c read_make_code
0001a00c g     O .rwdata	00000004 alt_priority_mask
00015164 g     F .text	0000009c alt_ic_irq_enable
000071bc g     F .text	00000024 __vfprintf_internal
00013fc4 g     F .text	00000230 altera_avalon_uart_read
0000d700 g     F .text	00000080 __subdf3
00018102 g     O .rwdata	00000066 single_byte_make_code
00011f48 g     F .text	00000098 alt_epcs_flash_read
0000a760 g     F .text	000000c4 __lo0bits
0001a020 g     O .rwdata	00000008 alt_alarm_list
00014f7c g     F .text	00000064 _do_ctors
00001198 g     F .text	00000080 put_vga_string
0000eb94 g     F .text	000000fc close
000159a4 g     F .text	00000068 alt_program_amd
0000e680 g     F .text	00000314 __pack_d
00000000  w      *UND*	00000000 free
00008d78 g     F .text	00000004 __sinit_lock_acquire
00014844 g     F .text	00000170 epcs_write_buffer
0000b37c g     F .text	00000100 __multadd
0000a6c8 g     F .text	00000028 _Bfree



Disassembly of section .exceptions:

00000020 <alt_exception>:
         * Process an exception.  For all exceptions we must preserve all
         * caller saved registers on the stack (See the Nios2 ABI
         * documentation for details).
         */

        addi  sp, sp, -76
  20:	deffed04 	addi	sp,sp,-76

#endif

#endif

        stw   ra,  0(sp)
  24:	dfc00015 	stw	ra,0(sp)
        /*
         * Leave a gap in the stack frame at 4(sp) for the muldiv handler to
         * store zero into.
         */

        stw   r1,   8(sp)
  28:	d8400215 	stw	at,8(sp)
        stw   r2,  12(sp)
  2c:	d8800315 	stw	r2,12(sp)
        stw   r3,  16(sp)
  30:	d8c00415 	stw	r3,16(sp)
        stw   r4,  20(sp)
  34:	d9000515 	stw	r4,20(sp)
        stw   r5,  24(sp)
  38:	d9400615 	stw	r5,24(sp)
        stw   r6,  28(sp)
  3c:	d9800715 	stw	r6,28(sp)
        stw   r7,  32(sp)
  40:	d9c00815 	stw	r7,32(sp)

        rdctl r5, estatus
  44:	000b307a 	rdctl	r5,estatus

        stw   r8,  36(sp)
  48:	da000915 	stw	r8,36(sp)
        stw   r9,  40(sp)
  4c:	da400a15 	stw	r9,40(sp)
        stw   r10, 44(sp)
  50:	da800b15 	stw	r10,44(sp)
        stw   r11, 48(sp)
  54:	dac00c15 	stw	r11,48(sp)
        stw   r12, 52(sp)
  58:	db000d15 	stw	r12,52(sp)
        stw   r13, 56(sp)
  5c:	db400e15 	stw	r13,56(sp)
        stw   r14, 60(sp)
  60:	db800f15 	stw	r14,60(sp)
        stw   r15, 64(sp)
  64:	dbc01015 	stw	r15,64(sp)
        /*
         * ea-4 contains the address of the instruction being executed
         * when the exception occured. For interrupt exceptions, we will
         * will be re-issue the isntruction. Store it in 72(sp)
         */
        stw   r5,  68(sp)  /* estatus */
  68:	d9401115 	stw	r5,68(sp)
        addi  r15, ea, -4  /* instruction that caused exception */
  6c:	ebffff04 	addi	r15,ea,-4
        stw   r15,  72(sp)
  70:	dbc01215 	stw	r15,72(sp)
#else
        /*
         * Test to see if the exception was a software exception or caused 
         * by an external interrupt, and vector accordingly.
         */
        rdctl r4, ipending
  74:	0009313a 	rdctl	r4,ipending
        andi  r2, r5, 1
  78:	2880004c 	andi	r2,r5,1
        beq   r2, zero, .Lnot_irq
  7c:	10000326 	beq	r2,zero,8c <alt_exception+0x6c>
        beq   r4, zero, .Lnot_irq
  80:	20000226 	beq	r4,zero,8c <alt_exception+0x6c>
        /*
         * Now that all necessary registers have been preserved, call 
         * alt_irq_handler() to process the interrupts.
         */

        call alt_irq_handler
  84:	00000ec0 	call	ec <alt_irq_handler>

        .section .exceptions.irqreturn, "xa"

        br    .Lexception_exit
  88:	00000306 	br	98 <alt_exception+0x78>
         * upon completion, so we write ea (address of instruction *after*
         * the one where the exception occured) into 72(sp). The actual
         * instruction that caused the exception is written in r2, which these
         * handlers will utilize.
         */
        stw   ea,  72(sp)  /* Don't re-issue */
  8c:	df401215 	stw	ea,72(sp)
        ldw   r2, -4(ea)   /* Instruction that caused exception */
  90:	e8bfff17 	ldw	r2,-4(ea)
#ifdef NIOS2_HAS_DEBUG_STUB
       /*
        *  Either tell the user now (if there is a debugger attached) or go into
        *  the debug monitor which will loop until a debugger is attached.
        */
        break
  94:	003da03a 	break	0
        /* 
         * Restore the saved registers, so that all general purpose registers 
         * have been restored to their state at the time the interrupt occured.
         */

        ldw   r5,  68(sp)
  98:	d9401117 	ldw	r5,68(sp)
        ldw   ea,  72(sp)  /* This becomes the PC once eret is executed */
  9c:	df401217 	ldw	ea,72(sp)
        ldw   ra,   0(sp)
  a0:	dfc00017 	ldw	ra,0(sp)

        wrctl estatus, r5
  a4:	2801707a 	wrctl	estatus,r5

        ldw   r1,   8(sp)
  a8:	d8400217 	ldw	at,8(sp)
        ldw   r2,  12(sp)
  ac:	d8800317 	ldw	r2,12(sp)
        ldw   r3,  16(sp)
  b0:	d8c00417 	ldw	r3,16(sp)
        ldw   r4,  20(sp)
  b4:	d9000517 	ldw	r4,20(sp)
        ldw   r5,  24(sp)
  b8:	d9400617 	ldw	r5,24(sp)
        ldw   r6,  28(sp)
  bc:	d9800717 	ldw	r6,28(sp)
        ldw   r7,  32(sp)
  c0:	d9c00817 	ldw	r7,32(sp)
#ifdef ALT_STACK_CHECK
        ldw   et, %gprel(alt_exception_old_stack_limit)(gp)
#endif
#endif

        ldw   r8,  36(sp)
  c4:	da000917 	ldw	r8,36(sp)
        ldw   r9,  40(sp)
  c8:	da400a17 	ldw	r9,40(sp)
        ldw   r10, 44(sp)
  cc:	da800b17 	ldw	r10,44(sp)
        ldw   r11, 48(sp)
  d0:	dac00c17 	ldw	r11,48(sp)
        ldw   r12, 52(sp)
  d4:	db000d17 	ldw	r12,52(sp)
        ldw   r13, 56(sp)
  d8:	db400e17 	ldw	r13,56(sp)
        ldw   r14, 60(sp)
  dc:	db800f17 	ldw	r14,60(sp)
        ldw   r15, 64(sp)
  e0:	dbc01017 	ldw	r15,64(sp)
#endif

        ldw   sp,  76(sp)

#else
        addi  sp, sp, 76
  e4:	dec01304 	addi	sp,sp,76

        /*
         * Return to the interrupted instruction.
         */

        eret
  e8:	ef80083a 	eret

000000ec <alt_irq_handler>:
 * instruction is present if the macro ALT_CI_INTERRUPT_VECTOR defined.
 */

void alt_irq_handler (void) __attribute__ ((section (".exceptions")));
void alt_irq_handler (void)
{
  ec:	defff904 	addi	sp,sp,-28
  f0:	dfc00615 	stw	ra,24(sp)
  f4:	df000515 	stw	fp,20(sp)
  f8:	df000504 	addi	fp,sp,20
#ifndef NIOS2_EIC_PRESENT
static ALT_INLINE alt_u32 ALT_ALWAYS_INLINE alt_irq_pending (void)
{
  alt_u32 active;

  NIOS2_READ_IPENDING (active);
  fc:	0005313a 	rdctl	r2,ipending
 100:	e0bffc15 	stw	r2,-16(fp)

  return active;
 104:	e0bffc17 	ldw	r2,-16(fp)
   * Consider the case where the high priority interupt is asserted during
   * the interrupt entry sequence for a lower priority interrupt to see why
   * this is the case.
   */

  active = alt_irq_pending ();
 108:	e0bfff15 	stw	r2,-4(fp)

  do
  {
    i = 0;
 10c:	e03ffd15 	stw	zero,-12(fp)
    mask = 1;
 110:	00800044 	movi	r2,1
 114:	e0bffe15 	stw	r2,-8(fp)
     * called to clear the interrupt condition.
     */

    do
    {
      if (active & mask)
 118:	e0ffff17 	ldw	r3,-4(fp)
 11c:	e0bffe17 	ldw	r2,-8(fp)
 120:	1884703a 	and	r2,r3,r2
 124:	1005003a 	cmpeq	r2,r2,zero
 128:	1000161e 	bne	r2,zero,184 <alt_irq_handler+0x98>
      { 
#ifdef ALT_ENHANCED_INTERRUPT_API_PRESENT
        alt_irq[i].handler(alt_irq[i].context); 
 12c:	e0bffd17 	ldw	r2,-12(fp)
 130:	00c000b4 	movhi	r3,2
 134:	18e9b504 	addi	r3,r3,-22828
 138:	100490fa 	slli	r2,r2,3
 13c:	10c5883a 	add	r2,r2,r3
 140:	11400017 	ldw	r5,0(r2)
 144:	e0bffd17 	ldw	r2,-12(fp)
 148:	00c000b4 	movhi	r3,2
 14c:	18e9b504 	addi	r3,r3,-22828
 150:	100490fa 	slli	r2,r2,3
 154:	10c5883a 	add	r2,r2,r3
 158:	10800104 	addi	r2,r2,4
 15c:	11000017 	ldw	r4,0(r2)
 160:	283ee83a 	callr	r5
#ifndef NIOS2_EIC_PRESENT
static ALT_INLINE alt_u32 ALT_ALWAYS_INLINE alt_irq_pending (void)
{
  alt_u32 active;

  NIOS2_READ_IPENDING (active);
 164:	0005313a 	rdctl	r2,ipending
 168:	e0bffb15 	stw	r2,-20(fp)

  return active;
 16c:	e0bffb17 	ldw	r2,-20(fp)
      mask <<= 1;
      i++;

    } while (1);

    active = alt_irq_pending ();
 170:	e0bfff15 	stw	r2,-4(fp)
    
  } while (active);
 174:	e0bfff17 	ldw	r2,-4(fp)
 178:	1004c03a 	cmpne	r2,r2,zero
 17c:	103fe31e 	bne	r2,zero,10c <alt_irq_handler+0x20>
 180:	00000706 	br	1a0 <alt_irq_handler+0xb4>
#else
        alt_irq[i].handler(alt_irq[i].context, i); 
#endif
        break;
      }
      mask <<= 1;
 184:	e0bffe17 	ldw	r2,-8(fp)
 188:	1085883a 	add	r2,r2,r2
 18c:	e0bffe15 	stw	r2,-8(fp)
      i++;
 190:	e0bffd17 	ldw	r2,-12(fp)
 194:	10800044 	addi	r2,r2,1
 198:	e0bffd15 	stw	r2,-12(fp)

    } while (1);
 19c:	003fde06 	br	118 <alt_irq_handler+0x2c>
  /*
   * Notify the operating system that interrupt processing is complete.
   */ 

  ALT_OS_INT_EXIT();
}
 1a0:	e037883a 	mov	sp,fp
 1a4:	dfc00117 	ldw	ra,4(sp)
 1a8:	df000017 	ldw	fp,0(sp)
 1ac:	dec00204 	addi	sp,sp,8
 1b0:	f800283a 	ret

Disassembly of section .text:

000001b4 <_start>:

    /* Assume the data cache size is always a power of two. */
#if NIOS2_DCACHE_SIZE > 0x8000
    movhi r2, %hi(NIOS2_DCACHE_SIZE)
#else
    movui r2, NIOS2_DCACHE_SIZE
     1b4:	00820014 	movui	r2,2048
#endif

0:
    initd 0(r2)
     1b8:	10000033 	initd	0(r2)
    addi r2, r2, -NIOS2_DCACHE_LINE_SIZE
     1bc:	10bfff04 	addi	r2,r2,-4
    bgt r2, zero, 0b
     1c0:	00bffd16 	blt	zero,r2,1b8 <_start+0x4>
#if (NIOS2_NUM_OF_SHADOW_REG_SETS == 0)    
    /*
     * Now that the caches are initialized, set up the stack pointer.
     * The value provided by the linker is assumed to be correctly aligned.
     */
    movhi sp, %hi(__alt_stack_pointer)
     1c4:	06c02034 	movhi	sp,128
    ori sp, sp, %lo(__alt_stack_pointer)
     1c8:	dec00014 	ori	sp,sp,0

    /* Set up the global pointer. */
    movhi gp, %hi(_gp)
     1cc:	068000b4 	movhi	gp,2
    ori gp, gp, %lo(_gp)
     1d0:	d687f514 	ori	gp,gp,8148
 */
#ifndef ALT_SIM_OPTIMIZE
    /* Log that the BSS is about to be cleared. */
    ALT_LOG_PUTS(alt_log_msg_bss)

    movhi r2, %hi(__bss_start)
     1d4:	00800074 	movhi	r2,1
    ori r2, r2, %lo(__bss_start)
     1d8:	10a80b14 	ori	r2,r2,41004

    movhi r3, %hi(__bss_end)
     1dc:	00c00074 	movhi	r3,1
    ori r3, r3, %lo(__bss_end)
     1e0:	18ea5914 	ori	r3,r3,43364

    beq r2, r3, 1f
     1e4:	10c00326 	beq	r2,r3,1f4 <_start+0x40>

0:
    stw zero, (r2)
     1e8:	10000015 	stw	zero,0(r2)
    addi r2, r2, 4
     1ec:	10800104 	addi	r2,r2,4
    bltu r2, r3, 0b
     1f0:	10fffd36 	bltu	r2,r3,1e8 <_start+0x34>

    /* Log that alt_main is about to be called. */
    ALT_LOG_PUTS(alt_log_msg_alt_main)

    /* Call the C entry point. It should never return. */
    call alt_main
     1f4:	000f2800 	call	f280 <alt_main>

000001f8 <alt_after_alt_main>:

    /* Wait in infinite loop in case alt_main does return. */
alt_after_alt_main:
    br alt_after_alt_main
     1f8:	003fff06 	br	1f8 <alt_after_alt_main>

000001fc <dm9000a_iow>:
#include <stdio.h>
#include "DM9000A.h"
#include "basic_io.h"

void dm9000a_iow(unsigned int reg, unsigned int data)
{
     1fc:	defffc04 	addi	sp,sp,-16
     200:	dfc00315 	stw	ra,12(sp)
     204:	df000215 	stw	fp,8(sp)
     208:	df000204 	addi	fp,sp,8
     20c:	e13ffe15 	stw	r4,-8(fp)
     210:	e17fff15 	stw	r5,-4(fp)
  IOWR(DM9000A_BASE, IO_addr, reg);
     214:	e0fffe17 	ldw	r3,-8(fp)
     218:	00802434 	movhi	r2,144
     21c:	10802404 	addi	r2,r2,144
     220:	10c00035 	stwio	r3,0(r2)
  usleep(STD_DELAY);
     224:	01000a04 	movi	r4,40
     228:	000f5c80 	call	f5c8 <usleep>
  IOWR(DM9000A_BASE, IO_data, data);
     22c:	e0ffff17 	ldw	r3,-4(fp)
     230:	00802434 	movhi	r2,144
     234:	10802504 	addi	r2,r2,148
     238:	10c00035 	stwio	r3,0(r2)
}
     23c:	e037883a 	mov	sp,fp
     240:	dfc00117 	ldw	ra,4(sp)
     244:	df000017 	ldw	fp,0(sp)
     248:	dec00204 	addi	sp,sp,8
     24c:	f800283a 	ret

00000250 <dm9000a_ior>:

unsigned int dm9000a_ior(unsigned int reg)
{
     250:	defffd04 	addi	sp,sp,-12
     254:	dfc00215 	stw	ra,8(sp)
     258:	df000115 	stw	fp,4(sp)
     25c:	df000104 	addi	fp,sp,4
     260:	e13fff15 	stw	r4,-4(fp)
  IOWR(DM9000A_BASE, IO_addr, reg);
     264:	e0ffff17 	ldw	r3,-4(fp)
     268:	00802434 	movhi	r2,144
     26c:	10802404 	addi	r2,r2,144
     270:	10c00035 	stwio	r3,0(r2)
  usleep(STD_DELAY);
     274:	01000a04 	movi	r4,40
     278:	000f5c80 	call	f5c8 <usleep>
  return IORD(DM9000A_BASE, IO_data);
     27c:	00802434 	movhi	r2,144
     280:	10802504 	addi	r2,r2,148
     284:	10800037 	ldwio	r2,0(r2)
}
     288:	e037883a 	mov	sp,fp
     28c:	dfc00117 	ldw	ra,4(sp)
     290:	df000017 	ldw	fp,0(sp)
     294:	dec00204 	addi	sp,sp,8
     298:	f800283a 	ret

0000029c <phy_write>:


void phy_write(unsigned int reg, unsigned int value)
{ 
     29c:	defffc04 	addi	sp,sp,-16
     2a0:	dfc00315 	stw	ra,12(sp)
     2a4:	df000215 	stw	fp,8(sp)
     2a8:	df000204 	addi	fp,sp,8
     2ac:	e13ffe15 	stw	r4,-8(fp)
     2b0:	e17fff15 	stw	r5,-4(fp)
  /* set PHY register address into EPAR REG. 0CH */
  dm9000a_iow(0x0C, reg | 0x40); /* PHY register address setting,
     2b4:	e0bffe17 	ldw	r2,-8(fp)
     2b8:	11401014 	ori	r5,r2,64
     2bc:	01000304 	movi	r4,12
     2c0:	00001fc0 	call	1fc <dm9000a_iow>
			    and DM9000_PHY offset = 0x40 */
  
  /* fill PHY WRITE data into EPDR REG. 0EH & REG. 0DH */
  dm9000a_iow(0x0E, ((value >> 8) & 0xFF));   /* PHY data high_byte */
     2c4:	e0bfff17 	ldw	r2,-4(fp)
     2c8:	1004d23a 	srli	r2,r2,8
     2cc:	11403fcc 	andi	r5,r2,255
     2d0:	01000384 	movi	r4,14
     2d4:	00001fc0 	call	1fc <dm9000a_iow>
  dm9000a_iow(0x0D, value & 0xFF);            /* PHY data low_byte */
     2d8:	e0bfff17 	ldw	r2,-4(fp)
     2dc:	11403fcc 	andi	r5,r2,255
     2e0:	01000344 	movi	r4,13
     2e4:	00001fc0 	call	1fc <dm9000a_iow>

  /* issue PHY + WRITE command = 0xa into EPCR REG. 0BH */
  dm9000a_iow(0x0B, 0x8);                     /* clear PHY command first */
     2e8:	010002c4 	movi	r4,11
     2ec:	01400204 	movi	r5,8
     2f0:	00001fc0 	call	1fc <dm9000a_iow>
  IOWR(DM9000A_BASE, IO_data, 0x0A);  /* issue PHY + WRITE command */
     2f4:	00c02434 	movhi	r3,144
     2f8:	18c02504 	addi	r3,r3,148
     2fc:	00800284 	movi	r2,10
     300:	18800035 	stwio	r2,0(r3)
  usleep(STD_DELAY);
     304:	01000a04 	movi	r4,40
     308:	000f5c80 	call	f5c8 <usleep>
  IOWR(DM9000A_BASE, IO_data, 0x08);  /* clear PHY command again */
     30c:	00c02434 	movhi	r3,144
     310:	18c02504 	addi	r3,r3,148
     314:	00800204 	movi	r2,8
     318:	18800035 	stwio	r2,0(r3)
  usleep(50);  /* wait 1~30 us (>20 us) for PHY + WRITE completion */
     31c:	01000c84 	movi	r4,50
     320:	000f5c80 	call	f5c8 <usleep>
}
     324:	e037883a 	mov	sp,fp
     328:	dfc00117 	ldw	ra,4(sp)
     32c:	df000017 	ldw	fp,0(sp)
     330:	dec00204 	addi	sp,sp,8
     334:	f800283a 	ret

00000338 <DM9000_init>:

/* DM9000_init I/O routine */
unsigned int DM9000_init(unsigned char *mac_address)
{
     338:	defffc04 	addi	sp,sp,-16
     33c:	dfc00315 	stw	ra,12(sp)
     340:	df000215 	stw	fp,8(sp)
     344:	df000204 	addi	fp,sp,8
     348:	e13fff15 	stw	r4,-4(fp)
  unsigned int  i;

  /* set the internal PHY power-on (GPIOs normal settings) */
  dm9000a_iow(0x1E, 0x01);  /* GPCR REG. 1EH = 1 selected
     34c:	01000784 	movi	r4,30
     350:	01400044 	movi	r5,1
     354:	00001fc0 	call	1fc <dm9000a_iow>
		       GPIO0 "output" port for internal PHY */
  dm9000a_iow(0x1F, 0x00);  /* GPR  REG. 1FH GEPIO0
     358:	010007c4 	movi	r4,31
     35c:	000b883a 	mov	r5,zero
     360:	00001fc0 	call	1fc <dm9000a_iow>
		       Bit [0] = 0 to activate internal PHY */
  msleep(5);        /* wait > 2 ms for PHY power-up ready */
     364:	0104e204 	movi	r4,5000
     368:	000f5c80 	call	f5c8 <usleep>

  /* software-RESET NIC */
  dm9000a_iow(NCR, 0x03);   /* NCR REG. 00 RST Bit [0] = 1 reset on,
     36c:	0009883a 	mov	r4,zero
     370:	014000c4 	movi	r5,3
     374:	00001fc0 	call	1fc <dm9000a_iow>
		       and LBK Bit [2:1] = 01b MAC loopback on */
  usleep(20);       /* wait > 10us for a software-RESET ok */
     378:	01000504 	movi	r4,20
     37c:	000f5c80 	call	f5c8 <usleep>
  dm9000a_iow(NCR, 0x00);   /* normalize */
     380:	0009883a 	mov	r4,zero
     384:	000b883a 	mov	r5,zero
     388:	00001fc0 	call	1fc <dm9000a_iow>
  dm9000a_iow(NCR, 0x03);
     38c:	0009883a 	mov	r4,zero
     390:	014000c4 	movi	r5,3
     394:	00001fc0 	call	1fc <dm9000a_iow>
  usleep(20);
     398:	01000504 	movi	r4,20
     39c:	000f5c80 	call	f5c8 <usleep>
  dm9000a_iow(NCR, 0x00);
     3a0:	0009883a 	mov	r4,zero
     3a4:	000b883a 	mov	r5,zero
     3a8:	00001fc0 	call	1fc <dm9000a_iow>
  
  /* set GPIO0=1 then GPIO0=0 to turn off and on the internal PHY */
  dm9000a_iow(0x1F, 0x01);  /* GPR PHYPD Bit [0] = 1 turn-off PHY */
     3ac:	010007c4 	movi	r4,31
     3b0:	01400044 	movi	r5,1
     3b4:	00001fc0 	call	1fc <dm9000a_iow>
  dm9000a_iow(0x1F, 0x00);  /* PHYPD Bit [0] = 0 activate phyxcer */
     3b8:	010007c4 	movi	r4,31
     3bc:	000b883a 	mov	r5,zero
     3c0:	00001fc0 	call	1fc <dm9000a_iow>
  msleep(10);       /* wait >4 ms for PHY power-up */
     3c4:	0109c404 	movi	r4,10000
     3c8:	000f5c80 	call	f5c8 <usleep>
  
  /* set PHY operation mode */
  phy_write(0,PHY_reset);   /* reset PHY registers back to the default state */
     3cc:	0009883a 	mov	r4,zero
     3d0:	01600014 	movui	r5,32768
     3d4:	000029c0 	call	29c <phy_write>
  usleep(50);               /* wait >30 us for PHY software-RESET ok */
     3d8:	01000c84 	movi	r4,50
     3dc:	000f5c80 	call	f5c8 <usleep>
  phy_write(16, 0x404);     /* turn off PHY reduce-power-down mode only */
     3e0:	01000404 	movi	r4,16
     3e4:	01410104 	movi	r5,1028
     3e8:	000029c0 	call	29c <phy_write>
  phy_write(4, PHY_txab);   /* set PHY TX advertised ability:
     3ec:	01000104 	movi	r4,4
     3f0:	01417844 	movi	r5,1505
     3f4:	000029c0 	call	29c <phy_write>
			       ALL + Flow_control */
  phy_write(0, 0x1200);     /* PHY auto-NEGO re-start enable
     3f8:	0009883a 	mov	r4,zero
     3fc:	01448004 	movi	r5,4608
     400:	000029c0 	call	29c <phy_write>
			       (RESTART_AUTO_NEGOTIATION +
			       AUTO_NEGOTIATION_ENABLE)
			       to auto sense and recovery PHY registers */
  msleep(5);                /* wait >2 ms for PHY auto-sense
     404:	0104e204 	movi	r4,5000
     408:	000f5c80 	call	f5c8 <usleep>
			       linking to partner */

  /* store MAC address into NIC */
  for (i = 0; i < 6; i++) 
     40c:	e03ffe15 	stw	zero,-8(fp)
     410:	00000b06 	br	440 <DM9000_init+0x108>
    dm9000a_iow(16 + i, mac_address[i]);
     414:	e0bffe17 	ldw	r2,-8(fp)
     418:	11000404 	addi	r4,r2,16
     41c:	e0fffe17 	ldw	r3,-8(fp)
     420:	e0bfff17 	ldw	r2,-4(fp)
     424:	1885883a 	add	r2,r3,r2
     428:	10800003 	ldbu	r2,0(r2)
     42c:	11403fcc 	andi	r5,r2,255
     430:	00001fc0 	call	1fc <dm9000a_iow>
			       to auto sense and recovery PHY registers */
  msleep(5);                /* wait >2 ms for PHY auto-sense
			       linking to partner */

  /* store MAC address into NIC */
  for (i = 0; i < 6; i++) 
     434:	e0bffe17 	ldw	r2,-8(fp)
     438:	10800044 	addi	r2,r2,1
     43c:	e0bffe15 	stw	r2,-8(fp)
     440:	e0bffe17 	ldw	r2,-8(fp)
     444:	108001b0 	cmpltui	r2,r2,6
     448:	103ff21e 	bne	r2,zero,414 <DM9000_init+0xdc>
    dm9000a_iow(16 + i, mac_address[i]);
  
  /* clear any pending interrupt */
  dm9000a_iow(ISR, 0x3F);  /* clear the ISR status: PRS, PTS, ROS, ROOS 4 bits,
     44c:	01003f84 	movi	r4,254
     450:	01400fc4 	movi	r5,63
     454:	00001fc0 	call	1fc <dm9000a_iow>
		      by RW/C1 */
  dm9000a_iow(NSR, 0x2C);  /* clear the TX status: TX1END, TX2END, WAKEUP 3 bits,
     458:	01000044 	movi	r4,1
     45c:	01400b04 	movi	r5,44
     460:	00001fc0 	call	1fc <dm9000a_iow>
		      by RW/C1 */

  /* program operating registers~ */
  dm9000a_iow(NCR, NCR_set); /* NCR REG. 00 enable the chip functions
     464:	0009883a 	mov	r4,zero
     468:	000b883a 	mov	r5,zero
     46c:	00001fc0 	call	1fc <dm9000a_iow>
			(and disable this MAC loopback mode back to normal) */
  dm9000a_iow(0x08, BPTR_set); /* BPTR  REG.08  (if necessary) RX Back Pressure
     470:	01000204 	movi	r4,8
     474:	01400fc4 	movi	r5,63
     478:	00001fc0 	call	1fc <dm9000a_iow>
			  Threshold in Half duplex moe only:
			  High Water 3KB, 600 us */
  dm9000a_iow(0x09, FCTR_set);  /* FCTR  REG.09  (if necessary)
     47c:	01000244 	movi	r4,9
     480:	01401684 	movi	r5,90
     484:	00001fc0 	call	1fc <dm9000a_iow>
			   Flow Control Threshold setting
			   High/ Low Water Overflow 5KB/ 10KB */
  dm9000a_iow(0x0A, RTFCR_set); /* RTFCR REG.0AH (if necessary)
     488:	01000284 	movi	r4,10
     48c:	01400a44 	movi	r5,41
     490:	00001fc0 	call	1fc <dm9000a_iow>
			   RX/TX Flow Control Register enable TXPEN, BKPM
			   (TX_Half), FLCE (RX) */
  dm9000a_iow(0x0F, 0x00);      /* Clear the all Event */
     494:	010003c4 	movi	r4,15
     498:	000b883a 	mov	r5,zero
     49c:	00001fc0 	call	1fc <dm9000a_iow>
  dm9000a_iow(0x2D, 0x80);      /* Switch LED to mode 1 */
     4a0:	01000b44 	movi	r4,45
     4a4:	01402004 	movi	r5,128
     4a8:	00001fc0 	call	1fc <dm9000a_iow>

  /* set other registers depending on applications */
  dm9000a_iow(ETXCSR, ETXCSR_set); /* Early Transmit 75% */
     4ac:	01000c04 	movi	r4,48
     4b0:	014020c4 	movi	r5,131
     4b4:	00001fc0 	call	1fc <dm9000a_iow>
  
  /* enable interrupts to activate DM9000 ~on */
  dm9000a_iow(IMR, INTR_set);   /* IMR REG. FFH PAR=1 only,
     4b8:	01003fc4 	movi	r4,255
     4bc:	01402044 	movi	r5,129
     4c0:	00001fc0 	call	1fc <dm9000a_iow>
			   or + PTM=1& PRM=1 enable RxTx interrupts */

  /* enable RX (Broadcast/ ALL_MULTICAST) ~go */
  dm9000a_iow(RCR , RCR_set | RX_ENABLE | PASS_MULTICAST);
     4c4:	01000144 	movi	r4,5
     4c8:	01400e44 	movi	r5,57
     4cc:	00001fc0 	call	1fc <dm9000a_iow>
  /* RCR REG. 05 RXEN Bit [0] = 1 to enable the RX machine/ filter */

  /* RETURN "DEVICE_SUCCESS" back to upper layer */
  return  (dm9000a_ior(0x2D)==0x80) ? DMFE_SUCCESS : DMFE_FAIL;
     4d0:	01000b44 	movi	r4,45
     4d4:	00002500 	call	250 <dm9000a_ior>
     4d8:	10802018 	cmpnei	r2,r2,128
}
     4dc:	e037883a 	mov	sp,fp
     4e0:	dfc00117 	ldw	ra,4(sp)
     4e4:	df000017 	ldw	fp,0(sp)
     4e8:	dec00204 	addi	sp,sp,8
     4ec:	f800283a 	ret

000004f0 <TransmitPacket>:

unsigned int TransmitPacket(unsigned char *data_ptr, unsigned int tx_len)
{
     4f0:	defffb04 	addi	sp,sp,-20
     4f4:	dfc00415 	stw	ra,16(sp)
     4f8:	df000315 	stw	fp,12(sp)
     4fc:	df000304 	addi	fp,sp,12
     500:	e13ffe15 	stw	r4,-8(fp)
     504:	e17fff15 	stw	r5,-4(fp)
  unsigned int i;
  
  /* mask NIC interrupts IMR: PAR only */
  dm9000a_iow(IMR, PAR_set);
     508:	01003fc4 	movi	r4,255
     50c:	01402004 	movi	r5,128
     510:	00001fc0 	call	1fc <dm9000a_iow>
  
  /* issue TX packet's length into TXPLH REG. FDH & TXPLL REG. FCH */
  dm9000a_iow(0xFD, (tx_len >> 8) & 0xFF);  /* TXPLH High_byte length */
     514:	e0bfff17 	ldw	r2,-4(fp)
     518:	1004d23a 	srli	r2,r2,8
     51c:	11403fcc 	andi	r5,r2,255
     520:	01003f44 	movi	r4,253
     524:	00001fc0 	call	1fc <dm9000a_iow>
  dm9000a_iow(0xFC, tx_len & 0xFF);         /* TXPLL Low_byte  length */
     528:	e0bfff17 	ldw	r2,-4(fp)
     52c:	11403fcc 	andi	r5,r2,255
     530:	01003f04 	movi	r4,252
     534:	00001fc0 	call	1fc <dm9000a_iow>

  /* wirte transmit data to chip SRAM */
  IOWR(DM9000A_BASE, IO_addr, MWCMD);  /* set MWCMD REG. F8H
     538:	00c02434 	movhi	r3,144
     53c:	18c02404 	addi	r3,r3,144
     540:	00803e04 	movi	r2,248
     544:	18800035 	stwio	r2,0(r3)
					  TX I/O port ready */
  for (i = 0; i < tx_len; i += 2) {
     548:	e03ffd15 	stw	zero,-12(fp)
     54c:	00001506 	br	5a4 <TransmitPacket+0xb4>
    usleep(STD_DELAY);
     550:	01000a04 	movi	r4,40
     554:	000f5c80 	call	f5c8 <usleep>
    IOWR(DM9000A_BASE, IO_data, (data_ptr[i+1]<<8)|data_ptr[i] );
     558:	e0fffd17 	ldw	r3,-12(fp)
     55c:	e0bffe17 	ldw	r2,-8(fp)
     560:	1885883a 	add	r2,r3,r2
     564:	10800044 	addi	r2,r2,1
     568:	10800003 	ldbu	r2,0(r2)
     56c:	10803fcc 	andi	r2,r2,255
     570:	1008923a 	slli	r4,r2,8
     574:	e0fffd17 	ldw	r3,-12(fp)
     578:	e0bffe17 	ldw	r2,-8(fp)
     57c:	1885883a 	add	r2,r3,r2
     580:	10800003 	ldbu	r2,0(r2)
     584:	10803fcc 	andi	r2,r2,255
     588:	2086b03a 	or	r3,r4,r2
     58c:	00802434 	movhi	r2,144
     590:	10802504 	addi	r2,r2,148
     594:	10c00035 	stwio	r3,0(r2)
  dm9000a_iow(0xFC, tx_len & 0xFF);         /* TXPLL Low_byte  length */

  /* wirte transmit data to chip SRAM */
  IOWR(DM9000A_BASE, IO_addr, MWCMD);  /* set MWCMD REG. F8H
					  TX I/O port ready */
  for (i = 0; i < tx_len; i += 2) {
     598:	e0bffd17 	ldw	r2,-12(fp)
     59c:	10800084 	addi	r2,r2,2
     5a0:	e0bffd15 	stw	r2,-12(fp)
     5a4:	e0fffd17 	ldw	r3,-12(fp)
     5a8:	e0bfff17 	ldw	r2,-4(fp)
     5ac:	18bfe836 	bltu	r3,r2,550 <TransmitPacket+0x60>
    usleep(STD_DELAY);
    IOWR(DM9000A_BASE, IO_data, (data_ptr[i+1]<<8)|data_ptr[i] );
  }

  /* issue TX polling command activated */
  dm9000a_iow(TCR , TCR_set | TX_REQUEST);  /* TXCR Bit [0] TXREQ auto clear
     5b0:	01000084 	movi	r4,2
     5b4:	01400044 	movi	r5,1
     5b8:	00001fc0 	call	1fc <dm9000a_iow>
				       after TX completed */

  /* wait TX transmit done */
  while(!(dm9000a_ior(NSR)&0x0C))
     5bc:	00000206 	br	5c8 <TransmitPacket+0xd8>
    usleep(STD_DELAY);
     5c0:	01000a04 	movi	r4,40
     5c4:	000f5c80 	call	f5c8 <usleep>
  /* issue TX polling command activated */
  dm9000a_iow(TCR , TCR_set | TX_REQUEST);  /* TXCR Bit [0] TXREQ auto clear
				       after TX completed */

  /* wait TX transmit done */
  while(!(dm9000a_ior(NSR)&0x0C))
     5c8:	01000044 	movi	r4,1
     5cc:	00002500 	call	250 <dm9000a_ior>
     5d0:	1080030c 	andi	r2,r2,12
     5d4:	1005003a 	cmpeq	r2,r2,zero
     5d8:	103ff91e 	bne	r2,zero,5c0 <TransmitPacket+0xd0>
    usleep(STD_DELAY);

  /* clear the NSR Register */
  dm9000a_iow(NSR,0x00);
     5dc:	01000044 	movi	r4,1
     5e0:	000b883a 	mov	r5,zero
     5e4:	00001fc0 	call	1fc <dm9000a_iow>
  
  /* re-enable NIC interrupts */
  dm9000a_iow(IMR, INTR_set);
     5e8:	01003fc4 	movi	r4,255
     5ec:	01402044 	movi	r5,129
     5f0:	00001fc0 	call	1fc <dm9000a_iow>

  /* RETURN "TX_SUCCESS" to upper layer */
  return  DMFE_SUCCESS;
     5f4:	0005883a 	mov	r2,zero
}
     5f8:	e037883a 	mov	sp,fp
     5fc:	dfc00117 	ldw	ra,4(sp)
     600:	df000017 	ldw	fp,0(sp)
     604:	dec00204 	addi	sp,sp,8
     608:	f800283a 	ret

0000060c <ReceivePacket>:

unsigned int ReceivePacket(unsigned char *data_ptr, unsigned int *rx_len)
{
     60c:	defff804 	addi	sp,sp,-32
     610:	dfc00715 	stw	ra,28(sp)
     614:	df000615 	stw	fp,24(sp)
     618:	df000604 	addi	fp,sp,24
     61c:	e13ffe15 	stw	r4,-8(fp)
     620:	e17fff15 	stw	r5,-4(fp)
  unsigned char rx_READY, GoodPacket;
  unsigned int  Tmp, RxStatus, i;
  
  RxStatus = rx_len[0] = 0;
     624:	e0bfff17 	ldw	r2,-4(fp)
     628:	10000015 	stw	zero,0(r2)
     62c:	e0bfff17 	ldw	r2,-4(fp)
     630:	10800017 	ldw	r2,0(r2)
     634:	e0bffb15 	stw	r2,-20(fp)
  GoodPacket=FALSE;
     638:	e03ffd05 	stb	zero,-12(fp)

  /* mask NIC interrupts IMR: PAR only */
  dm9000a_iow(IMR, PAR_set);
     63c:	01003fc4 	movi	r4,255
     640:	01402004 	movi	r5,128
     644:	00001fc0 	call	1fc <dm9000a_iow>
  
  /* dummy read a byte from MRCMDX REG. F0H */
  rx_READY = dm9000a_ior(MRCMDX);
     648:	01003c04 	movi	r4,240
     64c:	00002500 	call	250 <dm9000a_ior>
     650:	e0bffd45 	stb	r2,-11(fp)
  
  /* got most updated byte: rx_READY */
  rx_READY = IORD(DM9000A_BASE,IO_data)&0x03;
     654:	00802434 	movhi	r2,144
     658:	10802504 	addi	r2,r2,148
     65c:	10800037 	ldwio	r2,0(r2)
     660:	108000cc 	andi	r2,r2,3
     664:	e0bffd45 	stb	r2,-11(fp)
  usleep(STD_DELAY);
     668:	01000a04 	movi	r4,40
     66c:	000f5c80 	call	f5c8 <usleep>
  
  /* check if (rx_READY == 0x01): Received Packet READY? */
  if (rx_READY == DM9000_PKT_READY) {
     670:	e0bffd43 	ldbu	r2,-11(fp)
     674:	10800058 	cmpnei	r2,r2,1
     678:	10004d1e 	bne	r2,zero,7b0 <ReceivePacket+0x1a4>

    /* got RX_Status & RX_Length from RX SRAM */
    IOWR(DM9000A_BASE, IO_addr, MRCMD); /* set MRCMD REG. F2H
     67c:	00c02434 	movhi	r3,144
     680:	18c02404 	addi	r3,r3,144
     684:	00803c84 	movi	r2,242
     688:	18800035 	stwio	r2,0(r3)
					   RX I/O port ready */
    usleep(STD_DELAY);
     68c:	01000a04 	movi	r4,40
     690:	000f5c80 	call	f5c8 <usleep>
    RxStatus = IORD(DM9000A_BASE,IO_data);
     694:	00802434 	movhi	r2,144
     698:	10802504 	addi	r2,r2,148
     69c:	10800037 	ldwio	r2,0(r2)
     6a0:	e0bffb15 	stw	r2,-20(fp)
    usleep(STD_DELAY);
     6a4:	01000a04 	movi	r4,40
     6a8:	000f5c80 	call	f5c8 <usleep>
    rx_len[0] = IORD(DM9000A_BASE,IO_data);
     6ac:	00802434 	movhi	r2,144
     6b0:	10802504 	addi	r2,r2,148
     6b4:	10800037 	ldwio	r2,0(r2)
     6b8:	1007883a 	mov	r3,r2
     6bc:	e0bfff17 	ldw	r2,-4(fp)
     6c0:	10c00015 	stw	r3,0(r2)

    /* Check this packet_status GOOD or BAD? */
    if ( !(RxStatus & 0xBF00) && (rx_len[0] < MAX_PACKET_SIZE) ) {
     6c4:	e0bffb17 	ldw	r2,-20(fp)
     6c8:	10afc00c 	andi	r2,r2,48896
     6cc:	1004c03a 	cmpne	r2,r2,zero
     6d0:	1000221e 	bne	r2,zero,75c <ReceivePacket+0x150>
     6d4:	e0bfff17 	ldw	r2,-4(fp)
     6d8:	10800017 	ldw	r2,0(r2)
     6dc:	10817ca8 	cmpgeui	r2,r2,1522
     6e0:	10001e1e 	bne	r2,zero,75c <ReceivePacket+0x150>
      /* read 1 received packet from RX SRAM into RX buffer */
      for (i = 0; i < rx_len[0]; i += 2) {
     6e4:	e03ffa15 	stw	zero,-24(fp)
     6e8:	00001506 	br	740 <ReceivePacket+0x134>
	usleep(STD_DELAY);
     6ec:	01000a04 	movi	r4,40
     6f0:	000f5c80 	call	f5c8 <usleep>
	Tmp = IORD(DM9000A_BASE, IO_data);
     6f4:	00802434 	movhi	r2,144
     6f8:	10802504 	addi	r2,r2,148
     6fc:	10800037 	ldwio	r2,0(r2)
     700:	e0bffc15 	stw	r2,-16(fp)
	data_ptr[i] = Tmp & 0xFF;
     704:	e0fffa17 	ldw	r3,-24(fp)
     708:	e0bffe17 	ldw	r2,-8(fp)
     70c:	1887883a 	add	r3,r3,r2
     710:	e0bffc17 	ldw	r2,-16(fp)
     714:	18800005 	stb	r2,0(r3)
	data_ptr[i+1] = (Tmp>>8) & 0xFF;
     718:	e0fffa17 	ldw	r3,-24(fp)
     71c:	e0bffe17 	ldw	r2,-8(fp)
     720:	1885883a 	add	r2,r3,r2
     724:	10c00044 	addi	r3,r2,1
     728:	e0bffc17 	ldw	r2,-16(fp)
     72c:	1004d23a 	srli	r2,r2,8
     730:	18800005 	stb	r2,0(r3)
    rx_len[0] = IORD(DM9000A_BASE,IO_data);

    /* Check this packet_status GOOD or BAD? */
    if ( !(RxStatus & 0xBF00) && (rx_len[0] < MAX_PACKET_SIZE) ) {
      /* read 1 received packet from RX SRAM into RX buffer */
      for (i = 0; i < rx_len[0]; i += 2) {
     734:	e0bffa17 	ldw	r2,-24(fp)
     738:	10800084 	addi	r2,r2,2
     73c:	e0bffa15 	stw	r2,-24(fp)
     740:	e0bfff17 	ldw	r2,-4(fp)
     744:	10c00017 	ldw	r3,0(r2)
     748:	e0bffa17 	ldw	r2,-24(fp)
     74c:	10ffe736 	bltu	r2,r3,6ec <ReceivePacket+0xe0>
	usleep(STD_DELAY);
	Tmp = IORD(DM9000A_BASE, IO_data);
	data_ptr[i] = Tmp & 0xFF;
	data_ptr[i+1] = (Tmp>>8) & 0xFF;
      }
      GoodPacket = TRUE;
     750:	00800044 	movi	r2,1
     754:	e0bffd05 	stb	r2,-12(fp)
    RxStatus = IORD(DM9000A_BASE,IO_data);
    usleep(STD_DELAY);
    rx_len[0] = IORD(DM9000A_BASE,IO_data);

    /* Check this packet_status GOOD or BAD? */
    if ( !(RxStatus & 0xBF00) && (rx_len[0] < MAX_PACKET_SIZE) ) {
     758:	00004306 	br	868 <ReceivePacket+0x25c>
	data_ptr[i+1] = (Tmp>>8) & 0xFF;
      }
      GoodPacket = TRUE;
    } else {
      /* this packet is bad, dump it from RX SRAM */
      for (i = 0; i < rx_len[0]; i += 2) {
     75c:	e03ffa15 	stw	zero,-24(fp)
     760:	00000906 	br	788 <ReceivePacket+0x17c>
	usleep(STD_DELAY);
     764:	01000a04 	movi	r4,40
     768:	000f5c80 	call	f5c8 <usleep>
	Tmp = IORD(DM9000A_BASE, IO_data);        
     76c:	00802434 	movhi	r2,144
     770:	10802504 	addi	r2,r2,148
     774:	10800037 	ldwio	r2,0(r2)
     778:	e0bffc15 	stw	r2,-16(fp)
	data_ptr[i+1] = (Tmp>>8) & 0xFF;
      }
      GoodPacket = TRUE;
    } else {
      /* this packet is bad, dump it from RX SRAM */
      for (i = 0; i < rx_len[0]; i += 2) {
     77c:	e0bffa17 	ldw	r2,-24(fp)
     780:	10800084 	addi	r2,r2,2
     784:	e0bffa15 	stw	r2,-24(fp)
     788:	e0bfff17 	ldw	r2,-4(fp)
     78c:	10c00017 	ldw	r3,0(r2)
     790:	e0bffa17 	ldw	r2,-24(fp)
     794:	10fff336 	bltu	r2,r3,764 <ReceivePacket+0x158>
	usleep(STD_DELAY);
	Tmp = IORD(DM9000A_BASE, IO_data);        
      }
      printf("\nError\n");
     798:	01000074 	movhi	r4,1
     79c:	211ac504 	addi	r4,r4,27412
     7a0:	00052300 	call	5230 <puts>
      rx_len[0] = 0;
     7a4:	e0bfff17 	ldw	r2,-4(fp)
     7a8:	10000015 	stw	zero,0(r2)
     7ac:	00002e06 	br	868 <ReceivePacket+0x25c>
    }
  } else if (rx_READY) { /* status check first byte:
     7b0:	e0bffd43 	ldbu	r2,-11(fp)
     7b4:	1005003a 	cmpeq	r2,r2,zero
     7b8:	10002b1e 	bne	r2,zero,868 <ReceivePacket+0x25c>
			    rx_READY Bit[1:0] must be "00"b or "01"b */

    /* software-RESET NIC */

    dm9000a_iow(NCR, 0x03);   /* NCR REG. 00 RST Bit [0] = 1 reset on,
     7bc:	0009883a 	mov	r4,zero
     7c0:	014000c4 	movi	r5,3
     7c4:	00001fc0 	call	1fc <dm9000a_iow>
			 and LBK Bit [2:1] = 01b MAC loopback on */
    usleep(20);       /* wait > 10us for a software-RESET ok */
     7c8:	01000504 	movi	r4,20
     7cc:	000f5c80 	call	f5c8 <usleep>
    dm9000a_iow(NCR, 0x00);   /* normalize */
     7d0:	0009883a 	mov	r4,zero
     7d4:	000b883a 	mov	r5,zero
     7d8:	00001fc0 	call	1fc <dm9000a_iow>
    dm9000a_iow(NCR, 0x03);
     7dc:	0009883a 	mov	r4,zero
     7e0:	014000c4 	movi	r5,3
     7e4:	00001fc0 	call	1fc <dm9000a_iow>
    usleep(20);
     7e8:	01000504 	movi	r4,20
     7ec:	000f5c80 	call	f5c8 <usleep>
    dm9000a_iow(NCR, 0x00);    
     7f0:	0009883a 	mov	r4,zero
     7f4:	000b883a 	mov	r5,zero
     7f8:	00001fc0 	call	1fc <dm9000a_iow>
    /* program operating registers~ */
    dm9000a_iow(NCR, NCR_set); /* NCR REG. 00 enable the chip functions
     7fc:	0009883a 	mov	r4,zero
     800:	000b883a 	mov	r5,zero
     804:	00001fc0 	call	1fc <dm9000a_iow>
			 (and disable this MAC loopback mode back to normal) */
    dm9000a_iow(0x08, BPTR_set);  /* BPTR  REG.08  (if necessary) RX Back Pressure
     808:	01000204 	movi	r4,8
     80c:	01400fc4 	movi	r5,63
     810:	00001fc0 	call	1fc <dm9000a_iow>
			     Threshold in Half duplex moe only:
			     High Water 3KB, 600 us */
    dm9000a_iow(0x09, FCTR_set);  /* FCTR  REG.09  (if necessary)
     814:	01000244 	movi	r4,9
     818:	01401684 	movi	r5,90
     81c:	00001fc0 	call	1fc <dm9000a_iow>
			     Flow Control Threshold setting High/Low Water
			     Overflow 5KB/ 10KB */
    dm9000a_iow(0x0A, RTFCR_set); /* RTFCR REG.0AH (if necessary)
     820:	01000284 	movi	r4,10
     824:	01400a44 	movi	r5,41
     828:	00001fc0 	call	1fc <dm9000a_iow>
			     RX/TX Flow Control Register
			     enable TXPEN, BKPM (TX_Half), FLCE (RX) */
    dm9000a_iow(0x0F, 0x00);      /* Clear the all Event */
     82c:	010003c4 	movi	r4,15
     830:	000b883a 	mov	r5,zero
     834:	00001fc0 	call	1fc <dm9000a_iow>
    dm9000a_iow(0x2D, 0x80);      /* Switch LED to mode 1 */
     838:	01000b44 	movi	r4,45
     83c:	01402004 	movi	r5,128
     840:	00001fc0 	call	1fc <dm9000a_iow>
    /* set other registers depending on applications */
    dm9000a_iow(ETXCSR, ETXCSR_set); /* Early Transmit 75% */
     844:	01000c04 	movi	r4,48
     848:	014020c4 	movi	r5,131
     84c:	00001fc0 	call	1fc <dm9000a_iow>
    /* enable interrupts to activate DM9000 ~on */
    dm9000a_iow(IMR, INTR_set);   /* IMR REG. FFH PAR=1 only,
     850:	01003fc4 	movi	r4,255
     854:	01402044 	movi	r5,129
     858:	00001fc0 	call	1fc <dm9000a_iow>
			     or + PTM=1& PRM=1 enable RxTx interrupts */
    /* enable RX (Broadcast/ ALL_MULTICAST) ~go */
    dm9000a_iow(RCR , RCR_set | RX_ENABLE | PASS_MULTICAST);
     85c:	01000144 	movi	r4,5
     860:	01400e44 	movi	r5,57
     864:	00001fc0 	call	1fc <dm9000a_iow>
      /* RCR REG. 05 RXEN Bit [0] = 1 to enable the RX machine/ filter */
  }
  
  return GoodPacket ? DMFE_SUCCESS : DMFE_FAIL;
     868:	e0bffd03 	ldbu	r2,-12(fp)
     86c:	1005003a 	cmpeq	r2,r2,zero
}
     870:	e037883a 	mov	sp,fp
     874:	dfc00117 	ldw	ra,4(sp)
     878:	df000017 	ldw	fp,0(sp)
     87c:	dec00204 	addi	sp,sp,8
     880:	f800283a 	ret

00000884 <LCD_Init>:
#include <io.h>
#include "system.h"
#include "LCD.h"

void LCD_Init()
{
     884:	defffe04 	addi	sp,sp,-8
     888:	dfc00115 	stw	ra,4(sp)
     88c:	df000015 	stw	fp,0(sp)
     890:	d839883a 	mov	fp,sp
  lcd_write_cmd(LCD_16207_0_BASE,0x38);
     894:	00c02434 	movhi	r3,144
     898:	18c00c04 	addi	r3,r3,48
     89c:	00800e04 	movi	r2,56
     8a0:	18800035 	stwio	r2,0(r3)
  usleep(2000);
     8a4:	0101f404 	movi	r4,2000
     8a8:	000f5c80 	call	f5c8 <usleep>
  lcd_write_cmd(LCD_16207_0_BASE,0x0C);
     8ac:	00c02434 	movhi	r3,144
     8b0:	18c00c04 	addi	r3,r3,48
     8b4:	00800304 	movi	r2,12
     8b8:	18800035 	stwio	r2,0(r3)
  usleep(2000);
     8bc:	0101f404 	movi	r4,2000
     8c0:	000f5c80 	call	f5c8 <usleep>
  lcd_write_cmd(LCD_16207_0_BASE,0x01);
     8c4:	00c02434 	movhi	r3,144
     8c8:	18c00c04 	addi	r3,r3,48
     8cc:	00800044 	movi	r2,1
     8d0:	18800035 	stwio	r2,0(r3)
  usleep(2000);
     8d4:	0101f404 	movi	r4,2000
     8d8:	000f5c80 	call	f5c8 <usleep>
  lcd_write_cmd(LCD_16207_0_BASE,0x06);
     8dc:	00c02434 	movhi	r3,144
     8e0:	18c00c04 	addi	r3,r3,48
     8e4:	00800184 	movi	r2,6
     8e8:	18800035 	stwio	r2,0(r3)
  usleep(2000);
     8ec:	0101f404 	movi	r4,2000
     8f0:	000f5c80 	call	f5c8 <usleep>
  lcd_write_cmd(LCD_16207_0_BASE,0x80);
     8f4:	00c02434 	movhi	r3,144
     8f8:	18c00c04 	addi	r3,r3,48
     8fc:	00802004 	movi	r2,128
     900:	18800035 	stwio	r2,0(r3)
  usleep(2000);
     904:	0101f404 	movi	r4,2000
     908:	000f5c80 	call	f5c8 <usleep>
}
     90c:	e037883a 	mov	sp,fp
     910:	dfc00117 	ldw	ra,4(sp)
     914:	df000017 	ldw	fp,0(sp)
     918:	dec00204 	addi	sp,sp,8
     91c:	f800283a 	ret

00000920 <LCD_Show_Text>:

void LCD_Show_Text(char* Text)
{
     920:	defffb04 	addi	sp,sp,-20
     924:	dfc00415 	stw	ra,16(sp)
     928:	df000315 	stw	fp,12(sp)
     92c:	dc000215 	stw	r16,8(sp)
     930:	df000204 	addi	fp,sp,8
     934:	e13fff15 	stw	r4,-4(fp)
  int i;
  for(i=0;i<strlen(Text);i++) {
     938:	e03ffe15 	stw	zero,-8(fp)
     93c:	00001006 	br	980 <LCD_Show_Text+0x60>
    lcd_write_data(LCD_16207_0_BASE,Text[i]);
     940:	e0bffe17 	ldw	r2,-8(fp)
     944:	1007883a 	mov	r3,r2
     948:	e0bfff17 	ldw	r2,-4(fp)
     94c:	1885883a 	add	r2,r3,r2
     950:	10800003 	ldbu	r2,0(r2)
     954:	10c03fcc 	andi	r3,r2,255
     958:	18c0201c 	xori	r3,r3,128
     95c:	18ffe004 	addi	r3,r3,-128
     960:	00802434 	movhi	r2,144
     964:	10800e04 	addi	r2,r2,56
     968:	10c00035 	stwio	r3,0(r2)
    usleep(2000);
     96c:	0101f404 	movi	r4,2000
     970:	000f5c80 	call	f5c8 <usleep>
}

void LCD_Show_Text(char* Text)
{
  int i;
  for(i=0;i<strlen(Text);i++) {
     974:	e0bffe17 	ldw	r2,-8(fp)
     978:	10800044 	addi	r2,r2,1
     97c:	e0bffe15 	stw	r2,-8(fp)
     980:	e43ffe17 	ldw	r16,-8(fp)
     984:	e13fff17 	ldw	r4,-4(fp)
     988:	00052440 	call	5244 <strlen>
     98c:	80bfec36 	bltu	r16,r2,940 <LCD_Show_Text+0x20>
    lcd_write_data(LCD_16207_0_BASE,Text[i]);
    usleep(2000);
  }
}
     990:	e037883a 	mov	sp,fp
     994:	dfc00217 	ldw	ra,8(sp)
     998:	df000117 	ldw	fp,4(sp)
     99c:	dc000017 	ldw	r16,0(sp)
     9a0:	dec00304 	addi	sp,sp,12
     9a4:	f800283a 	ret

000009a8 <LCD_Line2>:

void LCD_Line2()
{
     9a8:	defffe04 	addi	sp,sp,-8
     9ac:	dfc00115 	stw	ra,4(sp)
     9b0:	df000015 	stw	fp,0(sp)
     9b4:	d839883a 	mov	fp,sp
  lcd_write_cmd(LCD_16207_0_BASE,0xC0);
     9b8:	00c02434 	movhi	r3,144
     9bc:	18c00c04 	addi	r3,r3,48
     9c0:	00803004 	movi	r2,192
     9c4:	18800035 	stwio	r2,0(r3)
  usleep(2000);
     9c8:	0101f404 	movi	r4,2000
     9cc:	000f5c80 	call	f5c8 <usleep>
}
     9d0:	e037883a 	mov	sp,fp
     9d4:	dfc00117 	ldw	ra,4(sp)
     9d8:	df000017 	ldw	fp,0(sp)
     9dc:	dec00204 	addi	sp,sp,8
     9e0:	f800283a 	ret

000009e4 <LCD_Test>:

void LCD_Test()
{
     9e4:	defff604 	addi	sp,sp,-40
     9e8:	dfc00915 	stw	ra,36(sp)
     9ec:	df000815 	stw	fp,32(sp)
     9f0:	df000804 	addi	fp,sp,32
  char Text1[16] = "<NIOS II on UP4>";
     9f4:	00c00074 	movhi	r3,1
     9f8:	18dac704 	addi	r3,r3,27420
     9fc:	18800017 	ldw	r2,0(r3)
     a00:	e0bff815 	stw	r2,-32(fp)
     a04:	18800117 	ldw	r2,4(r3)
     a08:	e0bff915 	stw	r2,-28(fp)
     a0c:	18800217 	ldw	r2,8(r3)
     a10:	e0bffa15 	stw	r2,-24(fp)
     a14:	18800317 	ldw	r2,12(r3)
     a18:	e0bffb15 	stw	r2,-20(fp)
  char Text2[16] = "Nice to See You!";
     a1c:	00c00074 	movhi	r3,1
     a20:	18dacc04 	addi	r3,r3,27440
     a24:	18800017 	ldw	r2,0(r3)
     a28:	e0bffc15 	stw	r2,-16(fp)
     a2c:	18800117 	ldw	r2,4(r3)
     a30:	e0bffd15 	stw	r2,-12(fp)
     a34:	18800217 	ldw	r2,8(r3)
     a38:	e0bffe15 	stw	r2,-8(fp)
     a3c:	18800317 	ldw	r2,12(r3)
     a40:	e0bfff15 	stw	r2,-4(fp)
  //  Initial LCD
  LCD_Init();
     a44:	00008840 	call	884 <LCD_Init>
  //  Show Text to LCD
  LCD_Show_Text(Text1);
     a48:	e13ff804 	addi	r4,fp,-32
     a4c:	00009200 	call	920 <LCD_Show_Text>
  //  Change Line2
  LCD_Line2();
     a50:	00009a80 	call	9a8 <LCD_Line2>
  //  Show Text to LCD
  LCD_Show_Text(Text2);
     a54:	e13ffc04 	addi	r4,fp,-16
     a58:	00009200 	call	920 <LCD_Show_Text>
}
     a5c:	e037883a 	mov	sp,fp
     a60:	dfc00117 	ldw	ra,4(sp)
     a64:	df000017 	ldw	fp,0(sp)
     a68:	dec00204 	addi	sp,sp,8
     a6c:	f800283a 	ret

00000a70 <Set_Cursor_XY>:
#include <io.h>
#include "system.h"
#include "VGA.h"
//-------------------------------------------------------------------------
void Set_Cursor_XY(unsigned int X,unsigned int Y)
{
     a70:	defffd04 	addi	sp,sp,-12
     a74:	df000215 	stw	fp,8(sp)
     a78:	df000204 	addi	fp,sp,8
     a7c:	e13ffe15 	stw	r4,-8(fp)
     a80:	e17fff15 	stw	r5,-4(fp)
  Vga_Cursor_X(VGA_0_BASE,X);
     a84:	e0fffe17 	ldw	r3,-8(fp)
     a88:	00802cf4 	movhi	r2,179
     a8c:	10b00104 	addi	r2,r2,-16380
     a90:	10c00035 	stwio	r3,0(r2)
  Vga_Cursor_Y(VGA_0_BASE,Y);
     a94:	e0ffff17 	ldw	r3,-4(fp)
     a98:	00802cf4 	movhi	r2,179
     a9c:	10b00204 	addi	r2,r2,-16376
     aa0:	10c00035 	stwio	r3,0(r2)
}
     aa4:	e037883a 	mov	sp,fp
     aa8:	df000017 	ldw	fp,0(sp)
     aac:	dec00104 	addi	sp,sp,4
     ab0:	f800283a 	ret

00000ab4 <Set_Cursor_Color>:
//-------------------------------------------------------------------------
void Set_Cursor_Color(unsigned int R,unsigned int G,unsigned int B)
{
     ab4:	defffc04 	addi	sp,sp,-16
     ab8:	df000315 	stw	fp,12(sp)
     abc:	df000304 	addi	fp,sp,12
     ac0:	e13ffd15 	stw	r4,-12(fp)
     ac4:	e17ffe15 	stw	r5,-8(fp)
     ac8:	e1bfff15 	stw	r6,-4(fp)
  Vga_Cursor_Color_R(VGA_0_BASE,R);
     acc:	e0fffd17 	ldw	r3,-12(fp)
     ad0:	00802cf4 	movhi	r2,179
     ad4:	10b00304 	addi	r2,r2,-16372
     ad8:	10c00035 	stwio	r3,0(r2)
  Vga_Cursor_Color_G(VGA_0_BASE,G);
     adc:	e0fffe17 	ldw	r3,-8(fp)
     ae0:	00802cf4 	movhi	r2,179
     ae4:	10b00404 	addi	r2,r2,-16368
     ae8:	10c00035 	stwio	r3,0(r2)
  Vga_Cursor_Color_B(VGA_0_BASE,B);
     aec:	e0ffff17 	ldw	r3,-4(fp)
     af0:	00802cf4 	movhi	r2,179
     af4:	10b00504 	addi	r2,r2,-16364
     af8:	10c00035 	stwio	r3,0(r2)
}
     afc:	e037883a 	mov	sp,fp
     b00:	df000017 	ldw	fp,0(sp)
     b04:	dec00104 	addi	sp,sp,4
     b08:	f800283a 	ret

00000b0c <Set_Pixel_On_Color>:
//-------------------------------------------------------------------------
void Set_Pixel_On_Color(unsigned int R,unsigned int G,unsigned int B)
{
     b0c:	defffc04 	addi	sp,sp,-16
     b10:	df000315 	stw	fp,12(sp)
     b14:	df000304 	addi	fp,sp,12
     b18:	e13ffd15 	stw	r4,-12(fp)
     b1c:	e17ffe15 	stw	r5,-8(fp)
     b20:	e1bfff15 	stw	r6,-4(fp)
  Vga_Pixel_On_Color_R(VGA_0_BASE,R);
     b24:	e0fffd17 	ldw	r3,-12(fp)
     b28:	00802cf4 	movhi	r2,179
     b2c:	10b00604 	addi	r2,r2,-16360
     b30:	10c00035 	stwio	r3,0(r2)
  Vga_Pixel_On_Color_G(VGA_0_BASE,G);
     b34:	e0fffe17 	ldw	r3,-8(fp)
     b38:	00802cf4 	movhi	r2,179
     b3c:	10b00704 	addi	r2,r2,-16356
     b40:	10c00035 	stwio	r3,0(r2)
  Vga_Pixel_On_Color_B(VGA_0_BASE,B);
     b44:	e0ffff17 	ldw	r3,-4(fp)
     b48:	00802cf4 	movhi	r2,179
     b4c:	10b00804 	addi	r2,r2,-16352
     b50:	10c00035 	stwio	r3,0(r2)
}
     b54:	e037883a 	mov	sp,fp
     b58:	df000017 	ldw	fp,0(sp)
     b5c:	dec00104 	addi	sp,sp,4
     b60:	f800283a 	ret

00000b64 <Set_Pixel_Off_Color>:
//-------------------------------------------------------------------------
void Set_Pixel_Off_Color(unsigned int R,unsigned int G,unsigned int B)
{
     b64:	defffc04 	addi	sp,sp,-16
     b68:	df000315 	stw	fp,12(sp)
     b6c:	df000304 	addi	fp,sp,12
     b70:	e13ffd15 	stw	r4,-12(fp)
     b74:	e17ffe15 	stw	r5,-8(fp)
     b78:	e1bfff15 	stw	r6,-4(fp)
  Vga_Pixel_Off_Color_R(VGA_0_BASE,R);
     b7c:	e0fffd17 	ldw	r3,-12(fp)
     b80:	00802cf4 	movhi	r2,179
     b84:	10b00904 	addi	r2,r2,-16348
     b88:	10c00035 	stwio	r3,0(r2)
  Vga_Pixel_Off_Color_G(VGA_0_BASE,G);
     b8c:	e0fffe17 	ldw	r3,-8(fp)
     b90:	00802cf4 	movhi	r2,179
     b94:	10b00a04 	addi	r2,r2,-16344
     b98:	10c00035 	stwio	r3,0(r2)
  Vga_Pixel_Off_Color_B(VGA_0_BASE,B);
     b9c:	e0ffff17 	ldw	r3,-4(fp)
     ba0:	00802cf4 	movhi	r2,179
     ba4:	10b00b04 	addi	r2,r2,-16340
     ba8:	10c00035 	stwio	r3,0(r2)
}
     bac:	e037883a 	mov	sp,fp
     bb0:	df000017 	ldw	fp,0(sp)
     bb4:	dec00104 	addi	sp,sp,4
     bb8:	f800283a 	ret

00000bbc <get_mode>:
#include <nios2.h>
#include "alt_up_ps2_port.h"

PS2_DEVICE get_mode()
{
     bbc:	defffb04 	addi	sp,sp,-20
     bc0:	dfc00415 	stw	ra,16(sp)
     bc4:	df000315 	stw	fp,12(sp)
     bc8:	df000304 	addi	fp,sp,12
  alt_u8 byte;
  //send the reset request, wait for ACK
  int status = write_data_byte_with_ack(0xff, DEFAULT_PS2_TIMEOUT_VAL);
     bcc:	01003fc4 	movi	r4,255
     bd0:	014002f4 	movhi	r5,11
     bd4:	296b9804 	addi	r5,r5,-20896
     bd8:	0000ed00 	call	ed0 <write_data_byte_with_ack>
     bdc:	e0bffd15 	stw	r2,-12(fp)
  if (status == PS2_SUCCESS) {
     be0:	e0bffd17 	ldw	r2,-12(fp)
     be4:	1004c03a 	cmpne	r2,r2,zero
     be8:	1000201e 	bne	r2,zero,c6c <get_mode+0xb0>
    // reset succeed, now try to get the BAT result, AA means passed
    status = read_data_byte_with_timeout(&byte, DEFAULT_PS2_TIMEOUT_VAL);
     bec:	e13ffe04 	addi	r4,fp,-8
     bf0:	014002f4 	movhi	r5,11
     bf4:	296b9804 	addi	r5,r5,-20896
     bf8:	0000f380 	call	f38 <read_data_byte_with_timeout>
     bfc:	e0bffd15 	stw	r2,-12(fp)
    if (status == PS2_SUCCESS && byte == 0xAA) {
     c00:	e0bffd17 	ldw	r2,-12(fp)
     c04:	1004c03a 	cmpne	r2,r2,zero
     c08:	1000181e 	bne	r2,zero,c6c <get_mode+0xb0>
     c0c:	e0bffe03 	ldbu	r2,-8(fp)
     c10:	10803fcc 	andi	r2,r2,255
     c14:	10802a98 	cmpnei	r2,r2,170
     c18:	1000141e 	bne	r2,zero,c6c <get_mode+0xb0>
      //get the 2nd byte
      status = read_data_byte_with_timeout(&byte, DEFAULT_PS2_TIMEOUT_VAL);
     c1c:	e13ffe04 	addi	r4,fp,-8
     c20:	014002f4 	movhi	r5,11
     c24:	296b9804 	addi	r5,r5,-20896
     c28:	0000f380 	call	f38 <read_data_byte_with_timeout>
     c2c:	e0bffd15 	stw	r2,-12(fp)
      if (status == PS2_TIMEOUT) {
     c30:	e0bffd17 	ldw	r2,-12(fp)
     c34:	10bfffd8 	cmpnei	r2,r2,-1
     c38:	1000031e 	bne	r2,zero,c48 <get_mode+0x8c>
	//for keyboard, only 2 bytes are sent(ACK, PASS/FAIL), so timeout
	return PS2_KEYBOARD;
     c3c:	00800044 	movi	r2,1
     c40:	e0bfff15 	stw	r2,-4(fp)
     c44:	00000b06 	br	c74 <get_mode+0xb8>
      } else if (status == PS2_SUCCESS && byte == 0x00) {
     c48:	e0bffd17 	ldw	r2,-12(fp)
     c4c:	1004c03a 	cmpne	r2,r2,zero
     c50:	1000061e 	bne	r2,zero,c6c <get_mode+0xb0>
     c54:	e0bffe03 	ldbu	r2,-8(fp)
     c58:	10803fcc 	andi	r2,r2,255
     c5c:	1004c03a 	cmpne	r2,r2,zero
     c60:	1000021e 	bne	r2,zero,c6c <get_mode+0xb0>
	//for mouse, it will sent out 0x00 after sending out ACK and PASS/FAIL.
	return PS2_MOUSE;
     c64:	e03fff15 	stw	zero,-4(fp)
     c68:	00000206 	br	c74 <get_mode+0xb8>
      }
    }
  }
  // when writing data to the PS/2 device, error occurs...
  return PS2_UNKNOWN;
     c6c:	00800084 	movi	r2,2
     c70:	e0bfff15 	stw	r2,-4(fp)
     c74:	e0bfff17 	ldw	r2,-4(fp)
}
     c78:	e037883a 	mov	sp,fp
     c7c:	dfc00117 	ldw	ra,4(sp)
     c80:	df000017 	ldw	fp,0(sp)
     c84:	dec00204 	addi	sp,sp,8
     c88:	f800283a 	ret

00000c8c <clear_FIFO>:

void clear_FIFO()
{
     c8c:	defffc04 	addi	sp,sp,-16
     c90:	dfc00315 	stw	ra,12(sp)
     c94:	df000215 	stw	fp,8(sp)
     c98:	df000204 	addi	fp,sp,8
  // The DATA byte of the data register will be automatically cleared after
  // a read, so we simply keep reading it until there are no available bytes
  alt_u16 num = 0;
     c9c:	e03fff0d 	sth	zero,-4(fp)
  alt_u32 data_reg = 0;
     ca0:	e03ffe15 	stw	zero,-8(fp)
  do {
    // read the data register (the DATA byte is cleared)
    data_reg = read_data_reg();
     ca4:	0000dd00 	call	dd0 <read_data_reg>
     ca8:	e0bffe15 	stw	r2,-8(fp)
    // get the number of available bytes from the RAVAIL part of data register
    num = read_num_bytes_available(data_reg);
     cac:	e13ffe17 	ldw	r4,-8(fp)
     cb0:	0000e000 	call	e00 <read_num_bytes_available>
     cb4:	e0bfff0d 	sth	r2,-4(fp)
  } while (num > 0);
     cb8:	e0bfff0b 	ldhu	r2,-4(fp)
     cbc:	1004c03a 	cmpne	r2,r2,zero
     cc0:	103ff81e 	bne	r2,zero,ca4 <clear_FIFO+0x18>
}
     cc4:	e037883a 	mov	sp,fp
     cc8:	dfc00117 	ldw	ra,4(sp)
     ccc:	df000017 	ldw	fp,0(sp)
     cd0:	dec00204 	addi	sp,sp,8
     cd4:	f800283a 	ret

00000cd8 <write_ctrl_reg>:

////////////////////////////////////////////////////////////
// Control Register Operations
void write_ctrl_reg(alt_u32 ctrl_data)
{
     cd8:	defffe04 	addi	sp,sp,-8
     cdc:	df000115 	stw	fp,4(sp)
     ce0:	df000104 	addi	fp,sp,4
     ce4:	e13fff15 	stw	r4,-4(fp)
  IOWR_ALT_UP_PS2_PORT_CONTROL(ALT_UP_PS2_BASE, ctrl_data);
     ce8:	e0ffff17 	ldw	r3,-4(fp)
     cec:	00802434 	movhi	r2,144
     cf0:	10802704 	addi	r2,r2,156
     cf4:	10c00035 	stwio	r3,0(r2)
}
     cf8:	e037883a 	mov	sp,fp
     cfc:	df000017 	ldw	fp,0(sp)
     d00:	dec00104 	addi	sp,sp,4
     d04:	f800283a 	ret

00000d08 <read_ctrl_reg>:

alt_u32 read_ctrl_reg()
{
     d08:	defffe04 	addi	sp,sp,-8
     d0c:	df000115 	stw	fp,4(sp)
     d10:	df000104 	addi	fp,sp,4
  alt_u32 ctrl_reg = IORD_ALT_UP_PS2_PORT_CONTROL(ALT_UP_PS2_BASE);
     d14:	00802434 	movhi	r2,144
     d18:	10802704 	addi	r2,r2,156
     d1c:	10800037 	ldwio	r2,0(r2)
     d20:	e0bfff15 	stw	r2,-4(fp)
  return ctrl_reg;
     d24:	e0bfff17 	ldw	r2,-4(fp)
}
     d28:	e037883a 	mov	sp,fp
     d2c:	df000017 	ldw	fp,0(sp)
     d30:	dec00104 	addi	sp,sp,4
     d34:	f800283a 	ret

00000d38 <read_RI_bit>:

alt_u8 read_RI_bit(alt_u32 ctrl_reg)
{
     d38:	defffd04 	addi	sp,sp,-12
     d3c:	df000215 	stw	fp,8(sp)
     d40:	df000204 	addi	fp,sp,8
     d44:	e13fff15 	stw	r4,-4(fp)
  alt_u8 ri = (alt_u8) ((ctrl_reg & ALT_UP_PS2_PORT_CONTROL_RI_MSK)
			>> ALT_UP_PS2_PORT_CONTROL_RI_OFST);
     d48:	e0bfff17 	ldw	r2,-4(fp)
     d4c:	1080400c 	andi	r2,r2,256
     d50:	1004d23a 	srli	r2,r2,8
     d54:	e0bffe05 	stb	r2,-8(fp)
  return ri;
     d58:	e0bffe03 	ldbu	r2,-8(fp)
}
     d5c:	e037883a 	mov	sp,fp
     d60:	df000017 	ldw	fp,0(sp)
     d64:	dec00104 	addi	sp,sp,4
     d68:	f800283a 	ret

00000d6c <read_RE_bit>:

alt_u8 read_RE_bit(alt_u32 ctrl_reg)
{
     d6c:	defffd04 	addi	sp,sp,-12
     d70:	df000215 	stw	fp,8(sp)
     d74:	df000204 	addi	fp,sp,8
     d78:	e13fff15 	stw	r4,-4(fp)
  alt_u8 re = (alt_u8) ((ctrl_reg & ALT_UP_PS2_PORT_CONTROL_RE_MSK)
			>> ALT_UP_PS2_PORT_CONTROL_RE_OFST);
     d7c:	e0bfff17 	ldw	r2,-4(fp)
     d80:	1080004c 	andi	r2,r2,1
     d84:	e0bffe05 	stb	r2,-8(fp)
  return re;
     d88:	e0bffe03 	ldbu	r2,-8(fp)
}
     d8c:	e037883a 	mov	sp,fp
     d90:	df000017 	ldw	fp,0(sp)
     d94:	dec00104 	addi	sp,sp,4
     d98:	f800283a 	ret

00000d9c <read_CE_bit>:

alt_u8 read_CE_bit(alt_u32 ctrl_reg)
{
     d9c:	defffd04 	addi	sp,sp,-12
     da0:	df000215 	stw	fp,8(sp)
     da4:	df000204 	addi	fp,sp,8
     da8:	e13fff15 	stw	r4,-4(fp)
  alt_u8 re = (alt_u8) ((ctrl_reg & ALT_UP_PS2_PORT_CONTROL_CE_MSK)
			>> ALT_UP_PS2_PORT_CONTROL_CE_OFST);
     dac:	e0bfff17 	ldw	r2,-4(fp)
     db0:	1081000c 	andi	r2,r2,1024
     db4:	1004d2ba 	srli	r2,r2,10
     db8:	e0bffe05 	stb	r2,-8(fp)
  return re;
     dbc:	e0bffe03 	ldbu	r2,-8(fp)
}
     dc0:	e037883a 	mov	sp,fp
     dc4:	df000017 	ldw	fp,0(sp)
     dc8:	dec00104 	addi	sp,sp,4
     dcc:	f800283a 	ret

00000dd0 <read_data_reg>:

////////////////////////////////////////////////////////////
// Data Register Operations

alt_u32 read_data_reg()
{
     dd0:	defffe04 	addi	sp,sp,-8
     dd4:	df000115 	stw	fp,4(sp)
     dd8:	df000104 	addi	fp,sp,4
  alt_u32 data_reg = IORD_ALT_UP_PS2_PORT_DATA(ALT_UP_PS2_BASE);
     ddc:	00802434 	movhi	r2,144
     de0:	10802604 	addi	r2,r2,152
     de4:	10800037 	ldwio	r2,0(r2)
     de8:	e0bfff15 	stw	r2,-4(fp)
  return data_reg;
     dec:	e0bfff17 	ldw	r2,-4(fp)
}
     df0:	e037883a 	mov	sp,fp
     df4:	df000017 	ldw	fp,0(sp)
     df8:	dec00104 	addi	sp,sp,4
     dfc:	f800283a 	ret

00000e00 <read_num_bytes_available>:

alt_u16 read_num_bytes_available(alt_u32 data_reg)
{
     e00:	defffd04 	addi	sp,sp,-12
     e04:	df000215 	stw	fp,8(sp)
     e08:	df000204 	addi	fp,sp,8
     e0c:	e13fff15 	stw	r4,-4(fp)
  alt_u16 ravail = (alt_u16)((data_reg & ALT_UP_PS2_PORT_DATA_REG_RAVAIL_MSK )
			     >> ALT_UP_PS2_PORT_DATA_REG_RAVAIL_OFST);
     e10:	e0bfff17 	ldw	r2,-4(fp)
     e14:	10bfffec 	andhi	r2,r2,65535
     e18:	1004d43a 	srli	r2,r2,16
     e1c:	e0bffe0d 	sth	r2,-8(fp)
  return ravail;
     e20:	e0bffe0b 	ldhu	r2,-8(fp)
}
     e24:	e037883a 	mov	sp,fp
     e28:	df000017 	ldw	fp,0(sp)
     e2c:	dec00104 	addi	sp,sp,4
     e30:	f800283a 	ret

00000e34 <read_data_byte>:

alt_u8 read_data_byte(alt_u32 data_reg)
{
     e34:	defffd04 	addi	sp,sp,-12
     e38:	df000215 	stw	fp,8(sp)
     e3c:	df000204 	addi	fp,sp,8
     e40:	e13fff15 	stw	r4,-4(fp)
  alt_u8 data = (alt_u8) ( (data_reg & ALT_UP_PS2_PORT_DATA_REG_DATA_MSK)
			   >> ALT_UP_PS2_PORT_DATA_REG_DATA_OFST) ;
     e44:	e0bfff17 	ldw	r2,-4(fp)
     e48:	e0bffe05 	stb	r2,-8(fp)
  return data;
     e4c:	e0bffe03 	ldbu	r2,-8(fp)
}
     e50:	e037883a 	mov	sp,fp
     e54:	df000017 	ldw	fp,0(sp)
     e58:	dec00104 	addi	sp,sp,4
     e5c:	f800283a 	ret

00000e60 <write_data_byte>:

int write_data_byte(alt_u8 byte)
{
     e60:	defffb04 	addi	sp,sp,-20
     e64:	dfc00415 	stw	ra,16(sp)
     e68:	df000315 	stw	fp,12(sp)
     e6c:	df000304 	addi	fp,sp,12
     e70:	e13ffe05 	stb	r4,-8(fp)
  //note: data are only located at the lower 8 bits
  //note: the software send command to the PS2 peripheral through the data
  //		register rather than the control register
  IOWR_ALT_UP_PS2_PORT_DATA(ALT_UP_PS2_BASE, byte);
     e74:	e0fffe03 	ldbu	r3,-8(fp)
     e78:	00802434 	movhi	r2,144
     e7c:	10802604 	addi	r2,r2,152
     e80:	10c00035 	stwio	r3,0(r2)
  alt_u32 ctrl_reg = IORD_ALT_UP_PS2_PORT_DATA(ALT_UP_PS2_BASE);
     e84:	00802434 	movhi	r2,144
     e88:	10802604 	addi	r2,r2,152
     e8c:	10800037 	ldwio	r2,0(r2)
     e90:	e0bffd15 	stw	r2,-12(fp)
  if ( read_CE_bit(ctrl_reg) ) {
     e94:	e13ffd17 	ldw	r4,-12(fp)
     e98:	0000d9c0 	call	d9c <read_CE_bit>
     e9c:	10803fcc 	andi	r2,r2,255
     ea0:	1005003a 	cmpeq	r2,r2,zero
     ea4:	1000031e 	bne	r2,zero,eb4 <write_data_byte+0x54>
    //CE bit is set --> error occurs on sending commands
    return PS2_ERROR;
     ea8:	00bfff84 	movi	r2,-2
     eac:	e0bfff15 	stw	r2,-4(fp)
     eb0:	00000106 	br	eb8 <write_data_byte+0x58>
  }
  return PS2_SUCCESS;
     eb4:	e03fff15 	stw	zero,-4(fp)
     eb8:	e0bfff17 	ldw	r2,-4(fp)
}
     ebc:	e037883a 	mov	sp,fp
     ec0:	dfc00117 	ldw	ra,4(sp)
     ec4:	df000017 	ldw	fp,0(sp)
     ec8:	dec00204 	addi	sp,sp,8
     ecc:	f800283a 	ret

00000ed0 <write_data_byte_with_ack>:

int write_data_byte_with_ack(alt_u8 byte, unsigned timeout)
{
     ed0:	defff904 	addi	sp,sp,-28
     ed4:	dfc00615 	stw	ra,24(sp)
     ed8:	df000515 	stw	fp,20(sp)
     edc:	df000504 	addi	fp,sp,20
     ee0:	e17ffe15 	stw	r5,-8(fp)
     ee4:	e13ffd05 	stb	r4,-12(fp)
  //note: data are only located at the lower 8 bits
  //note: the software send command to the PS2 peripheral through the data
  //		register rather than the control register
  int send_status = write_data_byte(byte);
     ee8:	e13ffd03 	ldbu	r4,-12(fp)
     eec:	0000e600 	call	e60 <write_data_byte>
     ef0:	e0bffc15 	stw	r2,-16(fp)
  if ( send_status != PS2_SUCCESS ) {
     ef4:	e0bffc17 	ldw	r2,-16(fp)
     ef8:	1005003a 	cmpeq	r2,r2,zero
     efc:	1000031e 	bne	r2,zero,f0c <write_data_byte_with_ack+0x3c>
    // return on sending error
    return send_status;
     f00:	e0bffc17 	ldw	r2,-16(fp)
     f04:	e0bfff15 	stw	r2,-4(fp)
     f08:	00000506 	br	f20 <write_data_byte_with_ack+0x50>
  }

  int ack_status = wait_for_ack(timeout);
     f0c:	e13ffe17 	ldw	r4,-8(fp)
     f10:	0000fe00 	call	fe0 <wait_for_ack>
     f14:	e0bffb15 	stw	r2,-20(fp)
  return ack_status;
     f18:	e0bffb17 	ldw	r2,-20(fp)
     f1c:	e0bfff15 	stw	r2,-4(fp)
     f20:	e0bfff17 	ldw	r2,-4(fp)
}
     f24:	e037883a 	mov	sp,fp
     f28:	dfc00117 	ldw	ra,4(sp)
     f2c:	df000017 	ldw	fp,0(sp)
     f30:	dec00204 	addi	sp,sp,8
     f34:	f800283a 	ret

00000f38 <read_data_byte_with_timeout>:

int read_data_byte_with_timeout(alt_u8 *byte, alt_u32 time_out)
{
     f38:	defff804 	addi	sp,sp,-32
     f3c:	dfc00715 	stw	ra,28(sp)
     f40:	df000615 	stw	fp,24(sp)
     f44:	df000604 	addi	fp,sp,24
     f48:	e13ffd15 	stw	r4,-12(fp)
     f4c:	e17ffe15 	stw	r5,-8(fp)
  alt_u32 data_reg = 0; 
     f50:	e03ffc15 	stw	zero,-16(fp)
  alt_u16 num = 0; 
     f54:	e03ffb0d 	sth	zero,-20(fp)
  alt_u32 count = 0;
     f58:	e03ffa15 	stw	zero,-24(fp)
     f5c:	00000006 	br	f60 <read_data_byte_with_timeout+0x28>
  for (;;) {
    count++;
     f60:	e0bffa17 	ldw	r2,-24(fp)
     f64:	10800044 	addi	r2,r2,1
     f68:	e0bffa15 	stw	r2,-24(fp)
    data_reg = read_data_reg();
     f6c:	0000dd00 	call	dd0 <read_data_reg>
     f70:	e0bffc15 	stw	r2,-16(fp)
    num = read_num_bytes_available(data_reg);
     f74:	e13ffc17 	ldw	r4,-16(fp)
     f78:	0000e000 	call	e00 <read_num_bytes_available>
     f7c:	e0bffb0d 	sth	r2,-20(fp)
    if (num > 0) {
     f80:	e0bffb0b 	ldhu	r2,-20(fp)
     f84:	1005003a 	cmpeq	r2,r2,zero
     f88:	1000071e 	bne	r2,zero,fa8 <read_data_byte_with_timeout+0x70>
      *byte = read_data_byte(data_reg);
     f8c:	e13ffc17 	ldw	r4,-16(fp)
     f90:	0000e340 	call	e34 <read_data_byte>
     f94:	1007883a 	mov	r3,r2
     f98:	e0bffd17 	ldw	r2,-12(fp)
     f9c:	10c00005 	stb	r3,0(r2)
      return PS2_SUCCESS;
     fa0:	e03fff15 	stw	zero,-4(fp)
     fa4:	00000806 	br	fc8 <read_data_byte_with_timeout+0x90>
    }
    //timeout = 0 means to disable the timeout
    if ( time_out!= 0 && count > time_out) {
     fa8:	e0bffe17 	ldw	r2,-8(fp)
     fac:	1005003a 	cmpeq	r2,r2,zero
     fb0:	103feb1e 	bne	r2,zero,f60 <read_data_byte_with_timeout+0x28>
     fb4:	e0fffa17 	ldw	r3,-24(fp)
     fb8:	e0bffe17 	ldw	r2,-8(fp)
     fbc:	10ffe82e 	bgeu	r2,r3,f60 <read_data_byte_with_timeout+0x28>
      return PS2_TIMEOUT;
     fc0:	00bfffc4 	movi	r2,-1
     fc4:	e0bfff15 	stw	r2,-4(fp)
    }
  }
     fc8:	e0bfff17 	ldw	r2,-4(fp)
}
     fcc:	e037883a 	mov	sp,fp
     fd0:	dfc00117 	ldw	ra,4(sp)
     fd4:	df000017 	ldw	fp,0(sp)
     fd8:	dec00204 	addi	sp,sp,8
     fdc:	f800283a 	ret

00000fe0 <wait_for_ack>:

int wait_for_ack(unsigned timeout)
{
     fe0:	defffb04 	addi	sp,sp,-20
     fe4:	dfc00415 	stw	ra,16(sp)
     fe8:	df000315 	stw	fp,12(sp)
     fec:	df000304 	addi	fp,sp,12
     ff0:	e13ffe15 	stw	r4,-8(fp)
  alt_u8 ack = 0;
     ff4:	e03ffd45 	stb	zero,-11(fp)
  alt_u8 data = 0;
     ff8:	e03ffd85 	stb	zero,-10(fp)
  alt_u8 status = PS2_SUCCESS;
     ffc:	e03ffd05 	stb	zero,-12(fp)
  for (;;) {
    status = read_data_byte_with_timeout(&data, timeout); 
    1000:	e13ffd84 	addi	r4,fp,-10
    1004:	e17ffe17 	ldw	r5,-8(fp)
    1008:	0000f380 	call	f38 <read_data_byte_with_timeout>
    100c:	e0bffd05 	stb	r2,-12(fp)
    if ( status == PS2_SUCCESS ) {
    1010:	e0bffd03 	ldbu	r2,-12(fp)
    1014:	1004c03a 	cmpne	r2,r2,zero
    1018:	1000061e 	bne	r2,zero,1034 <wait_for_ack+0x54>
      if (data == PS2_ACK)
    101c:	e0bffd83 	ldbu	r2,-10(fp)
    1020:	10803fcc 	andi	r2,r2,255
    1024:	10803e98 	cmpnei	r2,r2,250
    1028:	103ff51e 	bne	r2,zero,1000 <wait_for_ack+0x20>
	return PS2_SUCCESS;
    102c:	e03fff15 	stw	zero,-4(fp)
    1030:	00000206 	br	103c <wait_for_ack+0x5c>
    } else {
      return status;
    1034:	e0bffd03 	ldbu	r2,-12(fp)
    1038:	e0bfff15 	stw	r2,-4(fp)
    103c:	e0bfff17 	ldw	r2,-4(fp)
    }
  }
  return PS2_TIMEOUT;
}
    1040:	e037883a 	mov	sp,fp
    1044:	dfc00117 	ldw	ra,4(sp)
    1048:	df000017 	ldw	fp,0(sp)
    104c:	dec00204 	addi	sp,sp,8
    1050:	f800283a 	ret

00001054 <put_vga_char>:
  0x00, 0x00, 0x76, 0xdc, 0x00, 0x00, 0x00, 0x00, 0x00, 0x00, 0x00, 0x00, 0x00, 0x00, 0x00, 0x00,
  0x00, 0x66, 0x00, 0x66, 0x66, 0x66, 0x66, 0x3c, 0x18, 0x18, 0x18, 0x3c, 0x00, 0x00, 0x00, 0x00,
};

void put_vga_char(char c, unsigned int column, unsigned int row)
{
    1054:	defff904 	addi	sp,sp,-28
    1058:	df000615 	stw	fp,24(sp)
    105c:	df000604 	addi	fp,sp,24
    1060:	e17ffe15 	stw	r5,-8(fp)
    1064:	e1bfff15 	stw	r6,-4(fp)
    1068:	e13ffd05 	stb	r4,-12(fp)
  int i;
  unsigned pixels;
  c &= 0x7f;
    106c:	e0bffd03 	ldbu	r2,-12(fp)
    1070:	10801fcc 	andi	r2,r2,127
    1074:	e0bffd05 	stb	r2,-12(fp)
  for (i = 0 ; i < 15 ; ++i) {
    1078:	e03ffc15 	stw	zero,-16(fp)
    107c:	00003f06 	br	117c <put_vga_char+0x128>
    int j;    
    pixels = font[c * 16 + i];
    1080:	e0bffd07 	ldb	r2,-12(fp)
    1084:	1006913a 	slli	r3,r2,4
    1088:	e0bffc17 	ldw	r2,-16(fp)
    108c:	1887883a 	add	r3,r3,r2
    1090:	00800074 	movhi	r2,1
    1094:	109d9604 	addi	r2,r2,30296
    1098:	10c5883a 	add	r2,r2,r3
    109c:	10800003 	ldbu	r2,0(r2)
    10a0:	10803fcc 	andi	r2,r2,255
    10a4:	e0bffb15 	stw	r2,-20(fp)
    for (j = 0 ; j < 8 ; ++j) {
    10a8:	e03ffa15 	stw	zero,-24(fp)
    10ac:	00002d06 	br	1164 <put_vga_char+0x110>
      if (pixels & 0x80) Vga_Set_Pixel(VGA_0_BASE, column * 8 + j, i + row * 16);
    10b0:	e0bffb17 	ldw	r2,-20(fp)
    10b4:	1080200c 	andi	r2,r2,128
    10b8:	1005003a 	cmpeq	r2,r2,zero
    10bc:	1000131e 	bne	r2,zero,110c <put_vga_char+0xb8>
    10c0:	e0bfff17 	ldw	r2,-4(fp)
    10c4:	1006913a 	slli	r3,r2,4
    10c8:	e0bffc17 	ldw	r2,-16(fp)
    10cc:	1885883a 	add	r2,r3,r2
    10d0:	10c01424 	muli	r3,r2,80
    10d4:	e0bffe17 	ldw	r2,-8(fp)
    10d8:	1885883a 	add	r2,r3,r2
    10dc:	100690fa 	slli	r3,r2,3
    10e0:	e0bffa17 	ldw	r2,-24(fp)
    10e4:	1885883a 	add	r2,r3,r2
    10e8:	1085883a 	add	r2,r2,r2
    10ec:	1085883a 	add	r2,r2,r2
    10f0:	1007883a 	mov	r3,r2
    10f4:	00802834 	movhi	r2,160
    10f8:	1885883a 	add	r2,r3,r2
    10fc:	1007883a 	mov	r3,r2
    1100:	00800044 	movi	r2,1
    1104:	18800035 	stwio	r2,0(r3)
    1108:	00001006 	br	114c <put_vga_char+0xf8>
      else Vga_Clr_Pixel(VGA_0_BASE, column * 8 + j, i + row * 16);
    110c:	e0bfff17 	ldw	r2,-4(fp)
    1110:	1006913a 	slli	r3,r2,4
    1114:	e0bffc17 	ldw	r2,-16(fp)
    1118:	1885883a 	add	r2,r3,r2
    111c:	10c01424 	muli	r3,r2,80
    1120:	e0bffe17 	ldw	r2,-8(fp)
    1124:	1885883a 	add	r2,r3,r2
    1128:	100690fa 	slli	r3,r2,3
    112c:	e0bffa17 	ldw	r2,-24(fp)
    1130:	1885883a 	add	r2,r3,r2
    1134:	1085883a 	add	r2,r2,r2
    1138:	1085883a 	add	r2,r2,r2
    113c:	1007883a 	mov	r3,r2
    1140:	00802834 	movhi	r2,160
    1144:	1885883a 	add	r2,r3,r2
    1148:	10000035 	stwio	zero,0(r2)
      pixels <<= 1;
    114c:	e0bffb17 	ldw	r2,-20(fp)
    1150:	1085883a 	add	r2,r2,r2
    1154:	e0bffb15 	stw	r2,-20(fp)
  unsigned pixels;
  c &= 0x7f;
  for (i = 0 ; i < 15 ; ++i) {
    int j;    
    pixels = font[c * 16 + i];
    for (j = 0 ; j < 8 ; ++j) {
    1158:	e0bffa17 	ldw	r2,-24(fp)
    115c:	10800044 	addi	r2,r2,1
    1160:	e0bffa15 	stw	r2,-24(fp)
    1164:	e0bffa17 	ldw	r2,-24(fp)
    1168:	10800210 	cmplti	r2,r2,8
    116c:	103fd01e 	bne	r2,zero,10b0 <put_vga_char+0x5c>
void put_vga_char(char c, unsigned int column, unsigned int row)
{
  int i;
  unsigned pixels;
  c &= 0x7f;
  for (i = 0 ; i < 15 ; ++i) {
    1170:	e0bffc17 	ldw	r2,-16(fp)
    1174:	10800044 	addi	r2,r2,1
    1178:	e0bffc15 	stw	r2,-16(fp)
    117c:	e0bffc17 	ldw	r2,-16(fp)
    1180:	108003d0 	cmplti	r2,r2,15
    1184:	103fbe1e 	bne	r2,zero,1080 <put_vga_char+0x2c>
      if (pixels & 0x80) Vga_Set_Pixel(VGA_0_BASE, column * 8 + j, i + row * 16);
      else Vga_Clr_Pixel(VGA_0_BASE, column * 8 + j, i + row * 16);
      pixels <<= 1;
    }
  }
}
    1188:	e037883a 	mov	sp,fp
    118c:	df000017 	ldw	fp,0(sp)
    1190:	dec00104 	addi	sp,sp,4
    1194:	f800283a 	ret

00001198 <put_vga_string>:

void put_vga_string(char *str, unsigned int column, unsigned int row)
{
    1198:	defffa04 	addi	sp,sp,-24
    119c:	dfc00515 	stw	ra,20(sp)
    11a0:	df000415 	stw	fp,16(sp)
    11a4:	df000404 	addi	fp,sp,16
    11a8:	e13ffd15 	stw	r4,-12(fp)
    11ac:	e17ffe15 	stw	r5,-8(fp)
    11b0:	e1bfff15 	stw	r6,-4(fp)
  char c;
  while (c = *str++) put_vga_char(c, column++, row);
    11b4:	00000706 	br	11d4 <put_vga_string+0x3c>
    11b8:	e13ffc07 	ldb	r4,-16(fp)
    11bc:	e17ffe17 	ldw	r5,-8(fp)
    11c0:	e0bffe17 	ldw	r2,-8(fp)
    11c4:	10800044 	addi	r2,r2,1
    11c8:	e0bffe15 	stw	r2,-8(fp)
    11cc:	e1bfff17 	ldw	r6,-4(fp)
    11d0:	00010540 	call	1054 <put_vga_char>
    11d4:	e0bffd17 	ldw	r2,-12(fp)
    11d8:	10800003 	ldbu	r2,0(r2)
    11dc:	e0bffc05 	stb	r2,-16(fp)
    11e0:	e0bffc07 	ldb	r2,-16(fp)
    11e4:	1004c03a 	cmpne	r2,r2,zero
    11e8:	1007883a 	mov	r3,r2
    11ec:	e0bffd17 	ldw	r2,-12(fp)
    11f0:	10800044 	addi	r2,r2,1
    11f4:	e0bffd15 	stw	r2,-12(fp)
    11f8:	18803fcc 	andi	r2,r3,255
    11fc:	1004c03a 	cmpne	r2,r2,zero
    1200:	103fed1e 	bne	r2,zero,11b8 <put_vga_string+0x20>
}
    1204:	e037883a 	mov	sp,fp
    1208:	dfc00117 	ldw	ra,4(sp)
    120c:	df000017 	ldw	fp,0(sp)
    1210:	dec00204 	addi	sp,sp,8
    1214:	f800283a 	ret

00001218 <ethernet_interrupt_handler>:
		0x74, 0x65, 0x73, 0x74, 0x20, 0x6d, 0x73, 0x67,
		0x74, 0x65, 0x73, 0x74, 0x20, 0x6d, 0x73, 0x67,
		0x74, 0x65, 0x73, 0x74, 0x20, 0x6d, 0x73, 0x67
};   

static void ethernet_interrupt_handler() {
    1218:	deffd704 	addi	sp,sp,-164
    121c:	dfc02815 	stw	ra,160(sp)
    1220:	df002715 	stw	fp,156(sp)
    1224:	df002704 	addi	fp,sp,156
	unsigned int long checksum;
	alt_u32 checksum_32;



	receive_status = ReceivePacket(receive_buffer, &receive_buffer_length);
    1228:	010000b4 	movhi	r4,2
    122c:	21282504 	addi	r4,r4,-24428
    1230:	d1601604 	addi	r5,gp,-32680
    1234:	000060c0 	call	60c <ReceivePacket>
    1238:	e0bfff15 	stw	r2,-4(fp)

	if (receive_status == DMFE_SUCCESS) {
    123c:	e0bfff17 	ldw	r2,-4(fp)
    1240:	1004c03a 	cmpne	r2,r2,zero
    1244:	10014f1e 	bne	r2,zero,1784 <ethernet_interrupt_handler+0x56c>

#if 1
		printf("\n\nReceive Packet Length = %d", receive_buffer_length);
    1248:	d1601617 	ldw	r5,-32680(gp)
    124c:	01000074 	movhi	r4,1
    1250:	211ad104 	addi	r4,r4,27460
    1254:	00050f40 	call	50f4 <printf>
		for (i = 411; i < 435; i++)
    1258:	008066c4 	movi	r2,411
    125c:	e0bffe15 	stw	r2,-8(fp)
    1260:	00001506 	br	12b8 <ethernet_interrupt_handler+0xa0>
		{
			for (j = 0; j < 640; j++)
    1264:	e03ffd15 	stw	zero,-12(fp)
    1268:	00000d06 	br	12a0 <ethernet_interrupt_handler+0x88>
			{
				Vga_Clr_Pixel(VGA_0_BASE, j, i);
    126c:	e0bffe17 	ldw	r2,-8(fp)
    1270:	10c0a024 	muli	r3,r2,640
    1274:	e0bffd17 	ldw	r2,-12(fp)
    1278:	1885883a 	add	r2,r3,r2
    127c:	1085883a 	add	r2,r2,r2
    1280:	1085883a 	add	r2,r2,r2
    1284:	1007883a 	mov	r3,r2
    1288:	00802834 	movhi	r2,160
    128c:	1885883a 	add	r2,r3,r2
    1290:	10000035 	stwio	zero,0(r2)

#if 1
		printf("\n\nReceive Packet Length = %d", receive_buffer_length);
		for (i = 411; i < 435; i++)
		{
			for (j = 0; j < 640; j++)
    1294:	e0bffd17 	ldw	r2,-12(fp)
    1298:	10800044 	addi	r2,r2,1
    129c:	e0bffd15 	stw	r2,-12(fp)
    12a0:	e0bffd17 	ldw	r2,-12(fp)
    12a4:	1080a010 	cmplti	r2,r2,640
    12a8:	103ff01e 	bne	r2,zero,126c <ethernet_interrupt_handler+0x54>

	if (receive_status == DMFE_SUCCESS) {

#if 1
		printf("\n\nReceive Packet Length = %d", receive_buffer_length);
		for (i = 411; i < 435; i++)
    12ac:	e0bffe17 	ldw	r2,-8(fp)
    12b0:	10800044 	addi	r2,r2,1
    12b4:	e0bffe15 	stw	r2,-8(fp)
    12b8:	e0bffe17 	ldw	r2,-8(fp)
    12bc:	10806cd0 	cmplti	r2,r2,435
    12c0:	103fe81e 	bne	r2,zero,1264 <ethernet_interrupt_handler+0x4c>
			for (j = 0; j < 640; j++)
			{
				Vga_Clr_Pixel(VGA_0_BASE, j, i);
			}
		}
		for(i=0;i<receive_buffer_length;i++) {
    12c4:	e03ffe15 	stw	zero,-8(fp)
    12c8:	00001706 	br	1328 <ethernet_interrupt_handler+0x110>
			if (i%8==0) printf("\n");
    12cc:	e0bffe17 	ldw	r2,-8(fp)
    12d0:	108001cc 	andi	r2,r2,7
    12d4:	1004c03a 	cmpne	r2,r2,zero
    12d8:	1000021e 	bne	r2,zero,12e4 <ethernet_interrupt_handler+0xcc>
    12dc:	01000284 	movi	r4,10
    12e0:	000516c0 	call	516c <putchar>
			put_vga_string("Message received.", 0, 26);
    12e4:	01000074 	movhi	r4,1
    12e8:	211ad904 	addi	r4,r4,27492
    12ec:	000b883a 	mov	r5,zero
    12f0:	01800684 	movi	r6,26
    12f4:	00011980 	call	1198 <put_vga_string>
			printf("0x%.2X,", receive_buffer[i]);
    12f8:	e0fffe17 	ldw	r3,-8(fp)
    12fc:	008000b4 	movhi	r2,2
    1300:	10a82504 	addi	r2,r2,-24428
    1304:	10c5883a 	add	r2,r2,r3
    1308:	10800003 	ldbu	r2,0(r2)
    130c:	11403fcc 	andi	r5,r2,255
    1310:	01000074 	movhi	r4,1
    1314:	211ade04 	addi	r4,r4,27512
    1318:	00050f40 	call	50f4 <printf>
			for (j = 0; j < 640; j++)
			{
				Vga_Clr_Pixel(VGA_0_BASE, j, i);
			}
		}
		for(i=0;i<receive_buffer_length;i++) {
    131c:	e0bffe17 	ldw	r2,-8(fp)
    1320:	10800044 	addi	r2,r2,1
    1324:	e0bffe15 	stw	r2,-8(fp)
    1328:	e0fffe17 	ldw	r3,-8(fp)
    132c:	d0a01617 	ldw	r2,-32680(gp)
    1330:	18bfe636 	bltu	r3,r2,12cc <ethernet_interrupt_handler+0xb4>
			if (i%8==0) printf("\n");
			put_vga_string("Message received.", 0, 26);
			printf("0x%.2X,", receive_buffer[i]);
		}
		//put_vga_char(' ', i,2);
		printf("\n");
    1334:	01000284 	movi	r4,10
    1338:	000516c0 	call	516c <putchar>
#endif

		if (receive_buffer_length >= 14) {
    133c:	d0a01617 	ldw	r2,-32680(gp)
    1340:	108003b0 	cmpltui	r2,r2,14
    1344:	10010b1e 	bne	r2,zero,1774 <ethernet_interrupt_handler+0x55c>
			//  A real Ethernet packet
			if (receive_buffer[12] == 8 && receive_buffer[13] == 0 &&
    1348:	008000b4 	movhi	r2,2
    134c:	10a82504 	addi	r2,r2,-24428
    1350:	10800303 	ldbu	r2,12(r2)
    1354:	10803fcc 	andi	r2,r2,255
    1358:	10800218 	cmpnei	r2,r2,8
    135c:	1001011e 	bne	r2,zero,1764 <ethernet_interrupt_handler+0x54c>
    1360:	008000b4 	movhi	r2,2
    1364:	10a82504 	addi	r2,r2,-24428
    1368:	10800343 	ldbu	r2,13(r2)
    136c:	10803fcc 	andi	r2,r2,255
    1370:	1004c03a 	cmpne	r2,r2,zero
    1374:	1000fb1e 	bne	r2,zero,1764 <ethernet_interrupt_handler+0x54c>
    1378:	d0a01617 	ldw	r2,-32680(gp)
    137c:	108008b0 	cmpltui	r2,r2,34
    1380:	1000f81e 	bne	r2,zero,1764 <ethernet_interrupt_handler+0x54c>
					receive_buffer_length >= 34) {
				// An IP packet
				if (receive_buffer[23] == 0x11) {
    1384:	008000b4 	movhi	r2,2
    1388:	10a82504 	addi	r2,r2,-24428
    138c:	108005c3 	ldbu	r2,23(r2)
    1390:	10803fcc 	andi	r2,r2,255
    1394:	10800458 	cmpnei	r2,r2,17
    1398:	1000ee1e 	bne	r2,zero,1754 <ethernet_interrupt_handler+0x53c>
					// A UDP packet
					if (receive_buffer_length >= UDP_PACKET_PAYLOAD_OFFSET) {
    139c:	d0a01617 	ldw	r2,-32680(gp)
    13a0:	10800ab0 	cmpltui	r2,r2,42
    13a4:	1000fa1e 	bne	r2,zero,1790 <ethernet_interrupt_handler+0x578>



						byte14 = receive_buffer[14] << 8;
    13a8:	008000b4 	movhi	r2,2
    13ac:	10a82504 	addi	r2,r2,-24428
    13b0:	10800383 	ldbu	r2,14(r2)
    13b4:	10803fcc 	andi	r2,r2,255
    13b8:	1004923a 	slli	r2,r2,8
    13bc:	e0bffb15 	stw	r2,-20(fp)
						byte15 = receive_buffer[15];
    13c0:	008000b4 	movhi	r2,2
    13c4:	10a82504 	addi	r2,r2,-24428
    13c8:	108003c3 	ldbu	r2,15(r2)
    13cc:	10803fcc 	andi	r2,r2,255
    13d0:	e0bffa15 	stw	r2,-24(fp)
						byte16 = receive_buffer[16] << 8;
    13d4:	008000b4 	movhi	r2,2
    13d8:	10a82504 	addi	r2,r2,-24428
    13dc:	10800403 	ldbu	r2,16(r2)
    13e0:	10803fcc 	andi	r2,r2,255
    13e4:	1004923a 	slli	r2,r2,8
    13e8:	e0bff915 	stw	r2,-28(fp)
						byte17 = receive_buffer[17];
    13ec:	008000b4 	movhi	r2,2
    13f0:	10a82504 	addi	r2,r2,-24428
    13f4:	10800443 	ldbu	r2,17(r2)
    13f8:	10803fcc 	andi	r2,r2,255
    13fc:	e0bff815 	stw	r2,-32(fp)
						byte18 = receive_buffer[18] << 8;
    1400:	008000b4 	movhi	r2,2
    1404:	10a82504 	addi	r2,r2,-24428
    1408:	10800483 	ldbu	r2,18(r2)
    140c:	10803fcc 	andi	r2,r2,255
    1410:	1004923a 	slli	r2,r2,8
    1414:	e0bff715 	stw	r2,-36(fp)
						byte19 = receive_buffer[19];
    1418:	008000b4 	movhi	r2,2
    141c:	10a82504 	addi	r2,r2,-24428
    1420:	108004c3 	ldbu	r2,19(r2)
    1424:	10803fcc 	andi	r2,r2,255
    1428:	e0bff615 	stw	r2,-40(fp)
						byte20 = receive_buffer[20] << 8;
    142c:	008000b4 	movhi	r2,2
    1430:	10a82504 	addi	r2,r2,-24428
    1434:	10800503 	ldbu	r2,20(r2)
    1438:	10803fcc 	andi	r2,r2,255
    143c:	1004923a 	slli	r2,r2,8
    1440:	e0bff515 	stw	r2,-44(fp)
						byte21 = receive_buffer[21];
    1444:	008000b4 	movhi	r2,2
    1448:	10a82504 	addi	r2,r2,-24428
    144c:	10800543 	ldbu	r2,21(r2)
    1450:	10803fcc 	andi	r2,r2,255
    1454:	e0bff415 	stw	r2,-48(fp)
						byte22 = receive_buffer[22] << 8;
    1458:	008000b4 	movhi	r2,2
    145c:	10a82504 	addi	r2,r2,-24428
    1460:	10800583 	ldbu	r2,22(r2)
    1464:	10803fcc 	andi	r2,r2,255
    1468:	1004923a 	slli	r2,r2,8
    146c:	e0bff315 	stw	r2,-52(fp)
						byte23 = receive_buffer[23];
    1470:	008000b4 	movhi	r2,2
    1474:	10a82504 	addi	r2,r2,-24428
    1478:	108005c3 	ldbu	r2,23(r2)
    147c:	10803fcc 	andi	r2,r2,255
    1480:	e0bff215 	stw	r2,-56(fp)
						byte24 = receive_buffer[24] << 8;
    1484:	008000b4 	movhi	r2,2
    1488:	10a82504 	addi	r2,r2,-24428
    148c:	10800603 	ldbu	r2,24(r2)
    1490:	10803fcc 	andi	r2,r2,255
    1494:	1004923a 	slli	r2,r2,8
    1498:	e0bff115 	stw	r2,-60(fp)
						byte25 = receive_buffer[25];
    149c:	008000b4 	movhi	r2,2
    14a0:	10a82504 	addi	r2,r2,-24428
    14a4:	10800643 	ldbu	r2,25(r2)
    14a8:	10803fcc 	andi	r2,r2,255
    14ac:	e0bff015 	stw	r2,-64(fp)
						byte26 = receive_buffer[26] << 8;
    14b0:	008000b4 	movhi	r2,2
    14b4:	10a82504 	addi	r2,r2,-24428
    14b8:	10800683 	ldbu	r2,26(r2)
    14bc:	10803fcc 	andi	r2,r2,255
    14c0:	1004923a 	slli	r2,r2,8
    14c4:	e0bfef15 	stw	r2,-68(fp)
						byte27 = receive_buffer[27];
    14c8:	008000b4 	movhi	r2,2
    14cc:	10a82504 	addi	r2,r2,-24428
    14d0:	108006c3 	ldbu	r2,27(r2)
    14d4:	10803fcc 	andi	r2,r2,255
    14d8:	e0bfee15 	stw	r2,-72(fp)
						byte28 = receive_buffer[28] << 8;
    14dc:	008000b4 	movhi	r2,2
    14e0:	10a82504 	addi	r2,r2,-24428
    14e4:	10800703 	ldbu	r2,28(r2)
    14e8:	10803fcc 	andi	r2,r2,255
    14ec:	1004923a 	slli	r2,r2,8
    14f0:	e0bfed15 	stw	r2,-76(fp)
						byte29 = receive_buffer[29];
    14f4:	008000b4 	movhi	r2,2
    14f8:	10a82504 	addi	r2,r2,-24428
    14fc:	10800743 	ldbu	r2,29(r2)
    1500:	10803fcc 	andi	r2,r2,255
    1504:	e0bfec15 	stw	r2,-80(fp)
						byte30 = receive_buffer[30] << 8;
    1508:	008000b4 	movhi	r2,2
    150c:	10a82504 	addi	r2,r2,-24428
    1510:	10800783 	ldbu	r2,30(r2)
    1514:	10803fcc 	andi	r2,r2,255
    1518:	1004923a 	slli	r2,r2,8
    151c:	e0bfeb15 	stw	r2,-84(fp)
						byte31 = receive_buffer[31];
    1520:	008000b4 	movhi	r2,2
    1524:	10a82504 	addi	r2,r2,-24428
    1528:	108007c3 	ldbu	r2,31(r2)
    152c:	10803fcc 	andi	r2,r2,255
    1530:	e0bfea15 	stw	r2,-88(fp)
						byte32 = receive_buffer[32] << 8;
    1534:	008000b4 	movhi	r2,2
    1538:	10a82504 	addi	r2,r2,-24428
    153c:	10800803 	ldbu	r2,32(r2)
    1540:	10803fcc 	andi	r2,r2,255
    1544:	1004923a 	slli	r2,r2,8
    1548:	e0bfe915 	stw	r2,-92(fp)
						byte33 = receive_buffer[33];
    154c:	008000b4 	movhi	r2,2
    1550:	10a82504 	addi	r2,r2,-24428
    1554:	10800843 	ldbu	r2,33(r2)
    1558:	10803fcc 	andi	r2,r2,255
    155c:	e0bfe815 	stw	r2,-96(fp)

						ip_header0 = byte14 + byte15;
    1560:	e0fffb17 	ldw	r3,-20(fp)
    1564:	e0bffa17 	ldw	r2,-24(fp)
    1568:	1885883a 	add	r2,r3,r2
    156c:	e0bfe715 	stw	r2,-100(fp)
						ip_header1 = byte16 + byte17;
    1570:	e0fff917 	ldw	r3,-28(fp)
    1574:	e0bff817 	ldw	r2,-32(fp)
    1578:	1885883a 	add	r2,r3,r2
    157c:	e0bfe615 	stw	r2,-104(fp)
						ip_header2 = byte18 + byte19;
    1580:	e0fff717 	ldw	r3,-36(fp)
    1584:	e0bff617 	ldw	r2,-40(fp)
    1588:	1885883a 	add	r2,r3,r2
    158c:	e0bfe515 	stw	r2,-108(fp)
						ip_header3 = byte20 + byte21;
    1590:	e0fff517 	ldw	r3,-44(fp)
    1594:	e0bff417 	ldw	r2,-48(fp)
    1598:	1885883a 	add	r2,r3,r2
    159c:	e0bfe415 	stw	r2,-112(fp)
						ip_header4 = byte22 + byte23;
    15a0:	e0fff317 	ldw	r3,-52(fp)
    15a4:	e0bff217 	ldw	r2,-56(fp)
    15a8:	1885883a 	add	r2,r3,r2
    15ac:	e0bfe315 	stw	r2,-116(fp)
						ip_header5 = byte24 + byte25;
    15b0:	e0fff117 	ldw	r3,-60(fp)
    15b4:	e0bff017 	ldw	r2,-64(fp)
    15b8:	1885883a 	add	r2,r3,r2
    15bc:	e0bfe215 	stw	r2,-120(fp)
						ip_header6 = byte26 + byte27;
    15c0:	e0ffef17 	ldw	r3,-68(fp)
    15c4:	e0bfee17 	ldw	r2,-72(fp)
    15c8:	1885883a 	add	r2,r3,r2
    15cc:	e0bfe115 	stw	r2,-124(fp)
						ip_header7 = byte28 + byte29;
    15d0:	e0ffed17 	ldw	r3,-76(fp)
    15d4:	e0bfec17 	ldw	r2,-80(fp)
    15d8:	1885883a 	add	r2,r3,r2
    15dc:	e0bfe015 	stw	r2,-128(fp)
						ip_header8 = byte30 + byte31;
    15e0:	e0ffeb17 	ldw	r3,-84(fp)
    15e4:	e0bfea17 	ldw	r2,-88(fp)
    15e8:	1885883a 	add	r2,r3,r2
    15ec:	e0bfdf15 	stw	r2,-132(fp)
						ip_header9 = byte32 + byte33;
    15f0:	e0ffe917 	ldw	r3,-92(fp)
    15f4:	e0bfe817 	ldw	r2,-96(fp)
    15f8:	1885883a 	add	r2,r3,r2
    15fc:	e0bfde15 	stw	r2,-136(fp)

						crc_twos = ip_header0+ip_header1+ip_header2+ip_header3+ip_header4+ip_header5+ip_header6+ip_header7+ip_header8+ip_header9;
    1600:	e0ffe717 	ldw	r3,-100(fp)
    1604:	e0bfe617 	ldw	r2,-104(fp)
    1608:	1887883a 	add	r3,r3,r2
    160c:	e0bfe517 	ldw	r2,-108(fp)
    1610:	1887883a 	add	r3,r3,r2
    1614:	e0bfe417 	ldw	r2,-112(fp)
    1618:	1887883a 	add	r3,r3,r2
    161c:	e0bfe317 	ldw	r2,-116(fp)
    1620:	1887883a 	add	r3,r3,r2
    1624:	e0bfe217 	ldw	r2,-120(fp)
    1628:	1887883a 	add	r3,r3,r2
    162c:	e0bfe117 	ldw	r2,-124(fp)
    1630:	1887883a 	add	r3,r3,r2
    1634:	e0bfe017 	ldw	r2,-128(fp)
    1638:	1887883a 	add	r3,r3,r2
    163c:	e0bfdf17 	ldw	r2,-132(fp)
    1640:	1887883a 	add	r3,r3,r2
    1644:	e0bfde17 	ldw	r2,-136(fp)
    1648:	1885883a 	add	r2,r3,r2
    164c:	e0bfdd15 	stw	r2,-140(fp)
						printf("\n %hx twos: ", crc_twos);
    1650:	01000074 	movhi	r4,1
    1654:	211ae004 	addi	r4,r4,27520
    1658:	e17fdd17 	ldw	r5,-140(fp)
    165c:	00050f40 	call	50f4 <printf>
						crc_carry = crc_twos >> 16;
    1660:	e0bfdd17 	ldw	r2,-140(fp)
    1664:	1005d43a 	srai	r2,r2,16
    1668:	e0bfdc15 	stw	r2,-144(fp)
						printf("\n %hx carry: ", crc_carry);
    166c:	01000074 	movhi	r4,1
    1670:	211ae404 	addi	r4,r4,27536
    1674:	e17fdc17 	ldw	r5,-144(fp)
    1678:	00050f40 	call	50f4 <printf>
						crc_ones = crc_twos + crc_carry;
    167c:	e0ffdd17 	ldw	r3,-140(fp)
    1680:	e0bfdc17 	ldw	r2,-144(fp)
    1684:	1885883a 	add	r2,r3,r2
    1688:	e0bfdb15 	stw	r2,-148(fp)
						printf("\n ones: %hx", crc_ones);
    168c:	01000074 	movhi	r4,1
    1690:	211ae804 	addi	r4,r4,27552
    1694:	e17fdb17 	ldw	r5,-148(fp)
    1698:	00050f40 	call	50f4 <printf>
						checksum = crc_ones ^ 0xFFFF; // invert bits
    169c:	e0bfdb17 	ldw	r2,-148(fp)
    16a0:	10bfffdc 	xori	r2,r2,65535
    16a4:	e0bfda15 	stw	r2,-152(fp)
						printf("\n %hx checksum: ", checksum);
    16a8:	01000074 	movhi	r4,1
    16ac:	211aeb04 	addi	r4,r4,27564
    16b0:	e17fda17 	ldw	r5,-152(fp)
    16b4:	00050f40 	call	50f4 <printf>
						if (checksum == 0x0000)
    16b8:	e0bfda17 	ldw	r2,-152(fp)
    16bc:	1004c03a 	cmpne	r2,r2,zero
    16c0:	10001f1e 	bne	r2,zero,1740 <ethernet_interrupt_handler+0x528>
						{
							printf("Received: %s\n",receive_buffer + UDP_PACKET_PAYLOAD_OFFSET);
    16c4:	014000b4 	movhi	r5,2
    16c8:	29682f84 	addi	r5,r5,-24386
    16cc:	01000074 	movhi	r4,1
    16d0:	211af004 	addi	r4,r4,27584
    16d4:	00050f40 	call	50f4 <printf>
							for (i = UDP_PACKET_PAYLOAD_OFFSET; i < 79; i++)
    16d8:	00800a84 	movi	r2,42
    16dc:	e0bffe15 	stw	r2,-8(fp)
    16e0:	00000906 	br	1708 <ethernet_interrupt_handler+0x4f0>
								put_vga_char(' ', i-UDP_PACKET_PAYLOAD_OFFSET, 2);
    16e4:	e0bffe17 	ldw	r2,-8(fp)
    16e8:	10bff584 	addi	r2,r2,-42
    16ec:	100b883a 	mov	r5,r2
    16f0:	01000804 	movi	r4,32
    16f4:	01800084 	movi	r6,2
    16f8:	00010540 	call	1054 <put_vga_char>
						checksum = crc_ones ^ 0xFFFF; // invert bits
						printf("\n %hx checksum: ", checksum);
						if (checksum == 0x0000)
						{
							printf("Received: %s\n",receive_buffer + UDP_PACKET_PAYLOAD_OFFSET);
							for (i = UDP_PACKET_PAYLOAD_OFFSET; i < 79; i++)
    16fc:	e0bffe17 	ldw	r2,-8(fp)
    1700:	10800044 	addi	r2,r2,1
    1704:	e0bffe15 	stw	r2,-8(fp)
    1708:	e0bffe17 	ldw	r2,-8(fp)
    170c:	108013d0 	cmplti	r2,r2,79
    1710:	103ff41e 	bne	r2,zero,16e4 <ethernet_interrupt_handler+0x4cc>
								put_vga_char(' ', i-UDP_PACKET_PAYLOAD_OFFSET, 2);
							put_vga_string(receive_buffer + UDP_PACKET_PAYLOAD_OFFSET, 0, 2);
    1714:	008000b4 	movhi	r2,2
    1718:	10a82f84 	addi	r2,r2,-24386
    171c:	1009883a 	mov	r4,r2
    1720:	000b883a 	mov	r5,zero
    1724:	01800084 	movi	r6,2
    1728:	00011980 	call	1198 <put_vga_string>
							printf("\n rcvd correct checksum: %hx", checksum);
    172c:	01000074 	movhi	r4,1
    1730:	211af404 	addi	r4,r4,27600
    1734:	e17fda17 	ldw	r5,-152(fp)
    1738:	00050f40 	call	50f4 <printf>
    173c:	00001406 	br	1790 <ethernet_interrupt_handler+0x578>
						}
						else
							printf("\n rcvd incorrect checksum: %hx", checksum);
    1740:	01000074 	movhi	r4,1
    1744:	211afc04 	addi	r4,r4,27632
    1748:	e17fda17 	ldw	r5,-152(fp)
    174c:	00050f40 	call	50f4 <printf>
    1750:	00000f06 	br	1790 <ethernet_interrupt_handler+0x578>
					}
				} else {
					printf("Received non-UDP packet\n");
    1754:	01000074 	movhi	r4,1
    1758:	211b0404 	addi	r4,r4,27664
    175c:	00052300 	call	5230 <puts>
		printf("\n");
#endif

		if (receive_buffer_length >= 14) {
			//  A real Ethernet packet
			if (receive_buffer[12] == 8 && receive_buffer[13] == 0 &&
    1760:	00000b06 	br	1790 <ethernet_interrupt_handler+0x578>
					}
				} else {
					printf("Received non-UDP packet\n");
				}
			} else {
				printf("Received non-IP packet\n");
    1764:	01000074 	movhi	r4,1
    1768:	211b0a04 	addi	r4,r4,27688
    176c:	00052300 	call	5230 <puts>
    1770:	00000706 	br	1790 <ethernet_interrupt_handler+0x578>
			}
		} else {
			printf("Malformed Ethernet packet\n");
    1774:	01000074 	movhi	r4,1
    1778:	211b1004 	addi	r4,r4,27712
    177c:	00052300 	call	5230 <puts>
    1780:	00000306 	br	1790 <ethernet_interrupt_handler+0x578>
		}

	} else {
		printf("Error receiving packet\n");
    1784:	01000074 	movhi	r4,1
    1788:	211b1704 	addi	r4,r4,27740
    178c:	00052300 	call	5230 <puts>
	}

	/* Display the number of interrupts on the LEDs */
	interrupt_number++;
    1790:	d0a01817 	ldw	r2,-32672(gp)
    1794:	10800044 	addi	r2,r2,1
    1798:	d0a01815 	stw	r2,-32672(gp)
	outport(SEG7_DISPLAY_BASE, interrupt_number);
    179c:	d0a01817 	ldw	r2,-32672(gp)
    17a0:	1007883a 	mov	r3,r2
    17a4:	00802434 	movhi	r2,144
    17a8:	10800a04 	addi	r2,r2,40
    17ac:	10c00035 	stwio	r3,0(r2)

	/* Clear the DM9000A ISR: PRS, PTS, ROS, ROOS 4 bits, by RW/C1 */
	dm9000a_iow(ISR, 0x3F);
    17b0:	01003f84 	movi	r4,254
    17b4:	01400fc4 	movi	r5,63
    17b8:	00001fc0 	call	1fc <dm9000a_iow>

	/* Re-enable DM9000A interrupts */
	dm9000a_iow(IMR, INTR_set);
    17bc:	01003fc4 	movi	r4,255
    17c0:	01402044 	movi	r5,129
    17c4:	00001fc0 	call	1fc <dm9000a_iow>
}
    17c8:	e037883a 	mov	sp,fp
    17cc:	dfc00117 	ldw	ra,4(sp)
    17d0:	df000017 	ldw	fp,0(sp)
    17d4:	dec00204 	addi	sp,sp,8
    17d8:	f800283a 	ret

000017dc <main>:

int main()
{
    17dc:	defdcd04 	addi	sp,sp,-2252
    17e0:	dfc23215 	stw	ra,2248(sp)
    17e4:	df023115 	stw	fp,2244(sp)
    17e8:	df023104 	addi	fp,sp,2244
	int i;
	int j;
	int k;
	int curMsgChar = 0;
    17ec:	e03e0015 	stw	zero,-2048(fp)
	int curLineChar = 25;
    17f0:	00800644 	movi	r2,25
    17f4:	e0bdff15 	stw	r2,-2052(fp)
	int curMsgLine = 28;
    17f8:	00800704 	movi	r2,28
    17fc:	e0bdfe15 	stw	r2,-2056(fp)
	alt_u8 key = 0;
    1800:	e03e0405 	stb	zero,-2032(fp)
	int status = 0;
    1804:	e03dfd15 	stw	zero,-2060(fp)
	unsigned int packet_length;
	char line_tracker[24][78];
	int current_line = 2;
    1808:	00800084 	movi	r2,2
    180c:	e0bdfb15 	stw	r2,-2068(fp)
	int username_input = 1;
    1810:	00800044 	movi	r2,1
    1814:	e0bdfa15 	stw	r2,-2072(fp)
	int userChar = 0;
    1818:	e03df915 	stw	zero,-2076(fp)
	char username[10];
	int MAX_MSG_LENGTH_USER = 0;
    181c:	e03df815 	stw	zero,-2080(fp)
	char PAYLOAD_TEMP[128];
	int shift = 0;
    1820:	e03df715 	stw	zero,-2084(fp)
	int cursor_x = 0;
    1824:	e03df615 	stw	zero,-2088(fp)
	int cursor_x_char = 10;
    1828:	00800284 	movi	r2,10
    182c:	e0bdf515 	stw	r2,-2092(fp)
	int cursor_y = 0;
    1830:	e03df415 	stw	zero,-2096(fp)
	int cursor_y_char = 10;
    1834:	00800284 	movi	r2,10
    1838:	e0bdf315 	stw	r2,-2100(fp)
	int at_beginning = 1;
    183c:	00800044 	movi	r2,1
    1840:	e0bdf215 	stw	r2,-2104(fp)
	int at_end = 1;
    1844:	00800044 	movi	r2,1
    1848:	e0bdf115 	stw	r2,-2108(fp)

	//	unsigned char packet_id[];

	VGA_Ctrl_Reg vga_ctrl_set;

	vga_ctrl_set.VGA_Ctrl_Flags.RED_ON    = 1;
    184c:	e0bffac3 	ldbu	r2,-21(fp)
    1850:	10800054 	ori	r2,r2,1
    1854:	e0bffac5 	stb	r2,-21(fp)
	vga_ctrl_set.VGA_Ctrl_Flags.GREEN_ON  = 1;
    1858:	e0bffac3 	ldbu	r2,-21(fp)
    185c:	10800094 	ori	r2,r2,2
    1860:	e0bffac5 	stb	r2,-21(fp)
	vga_ctrl_set.VGA_Ctrl_Flags.BLUE_ON   = 1;
    1864:	e0bffac3 	ldbu	r2,-21(fp)
    1868:	10800114 	ori	r2,r2,4
    186c:	e0bffac5 	stb	r2,-21(fp)
	vga_ctrl_set.VGA_Ctrl_Flags.CURSOR_ON = 0;
    1870:	e0fffac3 	ldbu	r3,-21(fp)
    1874:	00bffdc4 	movi	r2,-9
    1878:	1884703a 	and	r2,r3,r2
    187c:	e0bffac5 	stb	r2,-21(fp)

	Vga_Write_Ctrl(VGA_0_BASE, vga_ctrl_set.Value);
    1880:	e0bffac3 	ldbu	r2,-21(fp)
    1884:	10c03fcc 	andi	r3,r2,255
    1888:	00802cf4 	movhi	r2,179
    188c:	10b00004 	addi	r2,r2,-16384
    1890:	10c00035 	stwio	r3,0(r2)
	Set_Pixel_On_Color(900,1000,1000);
    1894:	0100e104 	movi	r4,900
    1898:	0140fa04 	movi	r5,1000
    189c:	0180fa04 	movi	r6,1000
    18a0:	0000b0c0 	call	b0c <Set_Pixel_On_Color>
	Set_Pixel_Off_Color(0,300,300);
    18a4:	0009883a 	mov	r4,zero
    18a8:	01404b04 	movi	r5,300
    18ac:	01804b04 	movi	r6,300
    18b0:	0000b640 	call	b64 <Set_Pixel_Off_Color>
	Set_Cursor_Color(900,1000,1000);
    18b4:	0100e104 	movi	r4,900
    18b8:	0140fa04 	movi	r5,1000
    18bc:	0180fa04 	movi	r6,1000
    18c0:	0000ab40 	call	ab4 <Set_Cursor_Color>

	// Initialize the LCD and display a welcome message
	LCD_Init();
    18c4:	00008840 	call	884 <LCD_Init>
	LCD_Show_Text("Sup y'all");
    18c8:	01000074 	movhi	r4,1
    18cc:	211b1d04 	addi	r4,r4,27764
    18d0:	00009200 	call	920 <LCD_Show_Text>

	// Clear the LEDs to zero (will display interrupt count)
	outport(SEG7_DISPLAY_BASE, 0);
    18d4:	00802434 	movhi	r2,144
    18d8:	10800a04 	addi	r2,r2,40
    18dc:	10000035 	stwio	zero,0(r2)

	// Print a friendly welcome message
	printf("4840 Lab 2 started\n");
    18e0:	01000074 	movhi	r4,1
    18e4:	211b2004 	addi	r4,r4,27776
    18e8:	00052300 	call	5230 <puts>

	// Initalize the DM9000 and the Ethernet interrupt handler
	DM9000_init(mac_address);
    18ec:	d1200004 	addi	r4,gp,-32768
    18f0:	00003380 	call	338 <DM9000_init>
	interrupt_number = 0;
    18f4:	d0201815 	stw	zero,-32672(gp)
	alt_irq_register(DM9000A_IRQ, NULL, (void*)ethernet_interrupt_handler);
    18f8:	01000204 	movi	r4,8
    18fc:	000b883a 	mov	r5,zero
    1900:	01800034 	movhi	r6,0
    1904:	31848604 	addi	r6,r6,4632
    1908:	000ee500 	call	ee50 <alt_irq_register>

	// Initialize the keyboard
	printf("Please wait three seconds to initialize keyboard\n");
    190c:	01000074 	movhi	r4,1
    1910:	211b2504 	addi	r4,r4,27796
    1914:	00052300 	call	5230 <puts>
	clear_FIFO();
    1918:	0000c8c0 	call	c8c <clear_FIFO>
	switch (get_mode()) {
    191c:	0000bbc0 	call	bbc <get_mode>
    1920:	e0bffe15 	stw	r2,-8(fp)
    1924:	e0fffe17 	ldw	r3,-8(fp)
    1928:	1805003a 	cmpeq	r2,r3,zero
    192c:	1000061e 	bne	r2,zero,1948 <main+0x16c>
    1930:	e13ffe17 	ldw	r4,-8(fp)
    1934:	20800060 	cmpeqi	r2,r4,1
    1938:	1000011e 	bne	r2,zero,1940 <main+0x164>
    193c:	00000606 	br	1958 <main+0x17c>
		goto ErrorExit;
	}
	//___________________________________________________________________________________
	// Initialize the VGA...
	//___________________________________________________________________________________
	for (i = 0; i < 480; i++)
    1940:	e03e0315 	stw	zero,-2036(fp)
    1944:	00001d06 	br	19bc <main+0x1e0>
	clear_FIFO();
	switch (get_mode()) {
	case PS2_KEYBOARD:
		break;
	case PS2_MOUSE:
		printf("Error: Mouse detected on PS/2 port\n");
    1948:	01000074 	movhi	r4,1
    194c:	211b3204 	addi	r4,r4,27848
    1950:	00052300 	call	5230 <puts>
		goto ErrorExit;
    1954:	000cc206 	br	4c60 <main+0x3484>
	default:
		printf("Error: Unrecognized or no device on PS/2 port\n");
    1958:	01000074 	movhi	r4,1
    195c:	211b3b04 	addi	r4,r4,27884
    1960:	00052300 	call	5230 <puts>
		goto ErrorExit;
    1964:	000cbe06 	br	4c60 <main+0x3484>
	//___________________________________________________________________________________
	// Initialize the VGA...
	//___________________________________________________________________________________
	for (i = 0; i < 480; i++)
	{
		for (j = 0; j < 640; j++)
    1968:	e03e0215 	stw	zero,-2040(fp)
    196c:	00000d06 	br	19a4 <main+0x1c8>
		{
			Vga_Clr_Pixel(VGA_0_BASE, j, i);
    1970:	e0be0317 	ldw	r2,-2036(fp)
    1974:	10c0a024 	muli	r3,r2,640
    1978:	e0be0217 	ldw	r2,-2040(fp)
    197c:	1885883a 	add	r2,r3,r2
    1980:	1085883a 	add	r2,r2,r2
    1984:	1085883a 	add	r2,r2,r2
    1988:	1007883a 	mov	r3,r2
    198c:	00802834 	movhi	r2,160
    1990:	1885883a 	add	r2,r3,r2
    1994:	10000035 	stwio	zero,0(r2)
	//___________________________________________________________________________________
	// Initialize the VGA...
	//___________________________________________________________________________________
	for (i = 0; i < 480; i++)
	{
		for (j = 0; j < 640; j++)
    1998:	e0be0217 	ldw	r2,-2040(fp)
    199c:	10800044 	addi	r2,r2,1
    19a0:	e0be0215 	stw	r2,-2040(fp)
    19a4:	e0be0217 	ldw	r2,-2040(fp)
    19a8:	1080a010 	cmplti	r2,r2,640
    19ac:	103ff01e 	bne	r2,zero,1970 <main+0x194>
		goto ErrorExit;
	}
	//___________________________________________________________________________________
	// Initialize the VGA...
	//___________________________________________________________________________________
	for (i = 0; i < 480; i++)
    19b0:	e0be0317 	ldw	r2,-2036(fp)
    19b4:	10800044 	addi	r2,r2,1
    19b8:	e0be0315 	stw	r2,-2036(fp)
    19bc:	e0be0317 	ldw	r2,-2036(fp)
    19c0:	10807810 	cmplti	r2,r2,480
    19c4:	103fe81e 	bne	r2,zero,1968 <main+0x18c>
		for (j = 0; j < 640; j++)
		{
			Vga_Clr_Pixel(VGA_0_BASE, j, i);
		}
	}
	for(i = 0; i < 620; i++)
    19c8:	e03e0315 	stw	zero,-2036(fp)
    19cc:	00000d06 	br	1a04 <main+0x228>
	{
		Vga_Set_Pixel(VGA_0_BASE, i, 410);
    19d0:	e0be0317 	ldw	r2,-2036(fp)
    19d4:	1085883a 	add	r2,r2,r2
    19d8:	1085883a 	add	r2,r2,r2
    19dc:	1007883a 	mov	r3,r2
    19e0:	00802c34 	movhi	r2,176
    19e4:	10810004 	addi	r2,r2,1024
    19e8:	1885883a 	add	r2,r3,r2
    19ec:	1007883a 	mov	r3,r2
    19f0:	00800044 	movi	r2,1
    19f4:	18800035 	stwio	r2,0(r3)
		for (j = 0; j < 640; j++)
		{
			Vga_Clr_Pixel(VGA_0_BASE, j, i);
		}
	}
	for(i = 0; i < 620; i++)
    19f8:	e0be0317 	ldw	r2,-2036(fp)
    19fc:	10800044 	addi	r2,r2,1
    1a00:	e0be0315 	stw	r2,-2036(fp)
    1a04:	e0be0317 	ldw	r2,-2036(fp)
    1a08:	10809b10 	cmplti	r2,r2,620
    1a0c:	103ff01e 	bne	r2,zero,19d0 <main+0x1f4>
	{
		Vga_Set_Pixel(VGA_0_BASE, i, 410);
	}
	for(i = 0; i < 620; i++)
    1a10:	e03e0315 	stw	zero,-2036(fp)
    1a14:	00000d06 	br	1a4c <main+0x270>
	{
		Vga_Set_Pixel(VGA_0_BASE, i, 435);
    1a18:	e0be0317 	ldw	r2,-2036(fp)
    1a1c:	1085883a 	add	r2,r2,r2
    1a20:	1085883a 	add	r2,r2,r2
    1a24:	1007883a 	mov	r3,r2
    1a28:	00802c74 	movhi	r2,177
    1a2c:	10bf8004 	addi	r2,r2,-512
    1a30:	1885883a 	add	r2,r3,r2
    1a34:	1007883a 	mov	r3,r2
    1a38:	00800044 	movi	r2,1
    1a3c:	18800035 	stwio	r2,0(r3)
	}
	for(i = 0; i < 620; i++)
	{
		Vga_Set_Pixel(VGA_0_BASE, i, 410);
	}
	for(i = 0; i < 620; i++)
    1a40:	e0be0317 	ldw	r2,-2036(fp)
    1a44:	10800044 	addi	r2,r2,1
    1a48:	e0be0315 	stw	r2,-2036(fp)
    1a4c:	e0be0317 	ldw	r2,-2036(fp)
    1a50:	10809b10 	cmplti	r2,r2,620
    1a54:	103ff01e 	bne	r2,zero,1a18 <main+0x23c>
	{
		Vga_Set_Pixel(VGA_0_BASE, i, 435);
	}
	put_vga_string("Enter your username here: ", 0, 28);
    1a58:	01000074 	movhi	r4,1
    1a5c:	211b4704 	addi	r4,r4,27932
    1a60:	000b883a 	mov	r5,zero
    1a64:	01800704 	movi	r6,28
    1a68:	00011980 	call	1198 <put_vga_string>
	cursor_x_char = 26;
    1a6c:	00800684 	movi	r2,26
    1a70:	e0bdf515 	stw	r2,-2092(fp)
	cursor_y_char = 28;
    1a74:	00800704 	movi	r2,28
    1a78:	e0bdf315 	stw	r2,-2100(fp)
	cursor_x = (cursor_x_char*8)-1;
    1a7c:	e0bdf517 	ldw	r2,-2092(fp)
    1a80:	100490fa 	slli	r2,r2,3
    1a84:	10bfffc4 	addi	r2,r2,-1
    1a88:	e0bdf615 	stw	r2,-2088(fp)
	cursor_y = cursor_y_char*16;
    1a8c:	e0bdf317 	ldw	r2,-2100(fp)
    1a90:	1004913a 	slli	r2,r2,4
    1a94:	e0bdf415 	stw	r2,-2096(fp)
	for (j = cursor_y; j < cursor_y+16; j++)
    1a98:	e0bdf417 	ldw	r2,-2096(fp)
    1a9c:	e0be0215 	stw	r2,-2040(fp)
    1aa0:	00000f06 	br	1ae0 <main+0x304>
	{
		Vga_Set_Pixel(VGA_0_BASE, cursor_x, j);
    1aa4:	e0be0217 	ldw	r2,-2040(fp)
    1aa8:	10c0a024 	muli	r3,r2,640
    1aac:	e0bdf617 	ldw	r2,-2088(fp)
    1ab0:	1885883a 	add	r2,r3,r2
    1ab4:	1085883a 	add	r2,r2,r2
    1ab8:	1085883a 	add	r2,r2,r2
    1abc:	1007883a 	mov	r3,r2
    1ac0:	00802834 	movhi	r2,160
    1ac4:	1885883a 	add	r2,r3,r2
    1ac8:	1007883a 	mov	r3,r2
    1acc:	00800044 	movi	r2,1
    1ad0:	18800035 	stwio	r2,0(r3)
	put_vga_string("Enter your username here: ", 0, 28);
	cursor_x_char = 26;
	cursor_y_char = 28;
	cursor_x = (cursor_x_char*8)-1;
	cursor_y = cursor_y_char*16;
	for (j = cursor_y; j < cursor_y+16; j++)
    1ad4:	e0be0217 	ldw	r2,-2040(fp)
    1ad8:	10800044 	addi	r2,r2,1
    1adc:	e0be0215 	stw	r2,-2040(fp)
    1ae0:	e0bdf417 	ldw	r2,-2096(fp)
    1ae4:	10c00404 	addi	r3,r2,16
    1ae8:	e0be0217 	ldw	r2,-2040(fp)
    1aec:	10ffed16 	blt	r2,r3,1aa4 <main+0x2c8>
    1af0:	00000006 	br	1af4 <main+0x318>
	//___________________________________________________________________________________
	//User Input...
	//___________________________________________________________________________________
	for (;;)
	{
		status = read_make_code(&decode_mode, &key);
    1af4:	e17e0404 	addi	r5,fp,-2032
    1af8:	d1201704 	addi	r4,gp,-32676
    1afc:	0004f980 	call	4f98 <read_make_code>
    1b00:	e0bdfd15 	stw	r2,-2060(fp)
		if (status == PS2_SUCCESS)
    1b04:	e0bdfd17 	ldw	r2,-2060(fp)
    1b08:	1004c03a 	cmpne	r2,r2,zero
    1b0c:	100c501e 	bne	r2,zero,4c50 <main+0x3474>
		{
			//___________________________________________________________________________________
			//Display user input...
			//___________________________________________________________________________________
			switch ( decode_mode )
    1b10:	d0a01717 	ldw	r2,-32676(gp)
    1b14:	e0bffd15 	stw	r2,-12(fp)
    1b18:	e0fffd17 	ldw	r3,-12(fp)
    1b1c:	188000a0 	cmpeqi	r2,r3,2
    1b20:	10028c1e 	bne	r2,zero,2554 <main+0xd78>
    1b24:	e13ffd17 	ldw	r4,-12(fp)
    1b28:	20800120 	cmpeqi	r2,r4,4
    1b2c:	100a501e 	bne	r2,zero,4470 <main+0x2c94>
    1b30:	e0fffd17 	ldw	r3,-12(fp)
    1b34:	18800060 	cmpeqi	r2,r3,1
    1b38:	1000011e 	bne	r2,zero,1b40 <main+0x364>
    1b3c:	003fed06 	br	1af4 <main+0x318>
			{
			case KB_ASCII_MAKE_CODE :
				printf(" MAKE CODE :\t%X\n", key ); //print other unknown breakcode
    1b40:	e0be0403 	ldbu	r2,-2032(fp)
    1b44:	11403fcc 	andi	r5,r2,255
    1b48:	01000074 	movhi	r4,1
    1b4c:	211b4e04 	addi	r4,r4,27960
    1b50:	00050f40 	call	50f4 <printf>
				if (shift == 1)
    1b54:	e0bdf717 	ldw	r2,-2084(fp)
    1b58:	10800058 	cmpnei	r2,r2,1
    1b5c:	1000a31e 	bne	r2,zero,1dec <main+0x610>
				{
					switch (key)
    1b60:	e0be0403 	ldbu	r2,-2032(fp)
    1b64:	10803fcc 	andi	r2,r2,255
    1b68:	10bff644 	addi	r2,r2,-39
    1b6c:	e0bfff15 	stw	r2,-4(fp)
    1b70:	e13fff17 	ldw	r4,-4(fp)
    1b74:	20801528 	cmpgeui	r2,r4,84
    1b78:	10009c1e 	bne	r2,zero,1dec <main+0x610>
    1b7c:	e0ffff17 	ldw	r3,-4(fp)
    1b80:	e0ffff17 	ldw	r3,-4(fp)
    1b84:	18c5883a 	add	r2,r3,r3
    1b88:	1087883a 	add	r3,r2,r2
    1b8c:	00800034 	movhi	r2,0
    1b90:	1086e804 	addi	r2,r2,7072
    1b94:	1885883a 	add	r2,r3,r2
    1b98:	10800017 	ldw	r2,0(r2)
    1b9c:	1000683a 	jmp	r2
    1ba0:	00001dc0 	call	1dc <_start+0x28>
    1ba4:	00001dec 	andhi	zero,zero,119
    1ba8:	00001dec 	andhi	zero,zero,119
    1bac:	00001dec 	andhi	zero,zero,119
    1bb0:	00001dec 	andhi	zero,zero,119
    1bb4:	00001dcc 	andi	zero,zero,119
    1bb8:	00001d84 	movi	zero,118
    1bbc:	00001dd8 	cmpnei	zero,zero,119
    1bc0:	00001de4 	muli	zero,zero,119
    1bc4:	00001d0c 	andi	zero,zero,116
    1bc8:	00001d18 	cmpnei	zero,zero,116
    1bcc:	00001d24 	muli	zero,zero,116
    1bd0:	00001d30 	cmpltui	zero,zero,116
    1bd4:	00001d3c 	xorhi	zero,zero,116
    1bd8:	00001d48 	cmpgei	zero,zero,117
    1bdc:	00001d54 	movui	zero,117
    1be0:	00001d60 	cmpeqi	zero,zero,117
    1be4:	00001d6c 	andhi	zero,zero,117
    1be8:	00001d78 	rdprs	zero,zero,117
    1bec:	00001dec 	andhi	zero,zero,119
    1bf0:	00001db4 	movhi	zero,118
    1bf4:	00001dec 	andhi	zero,zero,119
    1bf8:	00001d90 	cmplti	zero,zero,118
    1bfc:	00001dec 	andhi	zero,zero,119
    1c00:	00001dec 	andhi	zero,zero,119
    1c04:	00001dec 	andhi	zero,zero,119
    1c08:	00001dec 	andhi	zero,zero,119
    1c0c:	00001dec 	andhi	zero,zero,119
    1c10:	00001dec 	andhi	zero,zero,119
    1c14:	00001dec 	andhi	zero,zero,119
    1c18:	00001dec 	andhi	zero,zero,119
    1c1c:	00001dec 	andhi	zero,zero,119
    1c20:	00001dec 	andhi	zero,zero,119
    1c24:	00001dec 	andhi	zero,zero,119
    1c28:	00001dec 	andhi	zero,zero,119
    1c2c:	00001dec 	andhi	zero,zero,119
    1c30:	00001dec 	andhi	zero,zero,119
    1c34:	00001dec 	andhi	zero,zero,119
    1c38:	00001dec 	andhi	zero,zero,119
    1c3c:	00001dec 	andhi	zero,zero,119
    1c40:	00001dec 	andhi	zero,zero,119
    1c44:	00001dec 	andhi	zero,zero,119
    1c48:	00001dec 	andhi	zero,zero,119
    1c4c:	00001dec 	andhi	zero,zero,119
    1c50:	00001dec 	andhi	zero,zero,119
    1c54:	00001dec 	andhi	zero,zero,119
    1c58:	00001dec 	andhi	zero,zero,119
    1c5c:	00001dec 	andhi	zero,zero,119
    1c60:	00001dec 	andhi	zero,zero,119
    1c64:	00001dec 	andhi	zero,zero,119
    1c68:	00001dec 	andhi	zero,zero,119
    1c6c:	00001dec 	andhi	zero,zero,119
    1c70:	00001d9c 	xori	zero,zero,118
    1c74:	00001dec 	andhi	zero,zero,119
    1c78:	00001da8 	cmpgeui	zero,zero,118
    1c7c:	00001dec 	andhi	zero,zero,119
    1c80:	00001dec 	andhi	zero,zero,119
    1c84:	00001d00 	call	1d0 <_start+0x1c>
    1c88:	00001cf0 	cmpltui	zero,zero,115
    1c8c:	00001cf0 	cmpltui	zero,zero,115
    1c90:	00001cf0 	cmpltui	zero,zero,115
    1c94:	00001cf0 	cmpltui	zero,zero,115
    1c98:	00001cf0 	cmpltui	zero,zero,115
    1c9c:	00001cf0 	cmpltui	zero,zero,115
    1ca0:	00001cf0 	cmpltui	zero,zero,115
    1ca4:	00001cf0 	cmpltui	zero,zero,115
    1ca8:	00001cf0 	cmpltui	zero,zero,115
    1cac:	00001cf0 	cmpltui	zero,zero,115
    1cb0:	00001cf0 	cmpltui	zero,zero,115
    1cb4:	00001cf0 	cmpltui	zero,zero,115
    1cb8:	00001cf0 	cmpltui	zero,zero,115
    1cbc:	00001cf0 	cmpltui	zero,zero,115
    1cc0:	00001cf0 	cmpltui	zero,zero,115
    1cc4:	00001cf0 	cmpltui	zero,zero,115
    1cc8:	00001cf0 	cmpltui	zero,zero,115
    1ccc:	00001cf0 	cmpltui	zero,zero,115
    1cd0:	00001cf0 	cmpltui	zero,zero,115
    1cd4:	00001cf0 	cmpltui	zero,zero,115
    1cd8:	00001cf0 	cmpltui	zero,zero,115
    1cdc:	00001cf0 	cmpltui	zero,zero,115
    1ce0:	00001cf0 	cmpltui	zero,zero,115
    1ce4:	00001cf0 	cmpltui	zero,zero,115
    1ce8:	00001cf0 	cmpltui	zero,zero,115
    1cec:	00001cf0 	cmpltui	zero,zero,115
					case 118:
					case 119:
					case 120:
					case 121:
					case 122:
						key = key - 32;
    1cf0:	e0be0403 	ldbu	r2,-2032(fp)
    1cf4:	10bff804 	addi	r2,r2,-32
    1cf8:	e0be0405 	stb	r2,-2032(fp)
						break;
    1cfc:	00003b06 	br	1dec <main+0x610>
					case 96:
						key = 126;
    1d00:	00801f84 	movi	r2,126
    1d04:	e0be0405 	stb	r2,-2032(fp)
						break;
    1d08:	00003806 	br	1dec <main+0x610>
					case 48:
						key = 41;
    1d0c:	00800a44 	movi	r2,41
    1d10:	e0be0405 	stb	r2,-2032(fp)
						break;
    1d14:	00003506 	br	1dec <main+0x610>
					case 49:
						key = 33;
    1d18:	00800844 	movi	r2,33
    1d1c:	e0be0405 	stb	r2,-2032(fp)
						break;
    1d20:	00003206 	br	1dec <main+0x610>
					case 50:
						key = 64;
    1d24:	00801004 	movi	r2,64
    1d28:	e0be0405 	stb	r2,-2032(fp)
						break;
    1d2c:	00002f06 	br	1dec <main+0x610>
					case 51:
						key = 35;
    1d30:	008008c4 	movi	r2,35
    1d34:	e0be0405 	stb	r2,-2032(fp)
						break;
    1d38:	00002c06 	br	1dec <main+0x610>
					case 52:
						key = 36;
    1d3c:	00800904 	movi	r2,36
    1d40:	e0be0405 	stb	r2,-2032(fp)
						break;
    1d44:	00002906 	br	1dec <main+0x610>
					case 53:
						key = 37;
    1d48:	00800944 	movi	r2,37
    1d4c:	e0be0405 	stb	r2,-2032(fp)
						break;
    1d50:	00002606 	br	1dec <main+0x610>
					case 54:
						key = 94;
    1d54:	00801784 	movi	r2,94
    1d58:	e0be0405 	stb	r2,-2032(fp)
						break;
    1d5c:	00002306 	br	1dec <main+0x610>
					case 55:
						key = 38;
    1d60:	00800984 	movi	r2,38
    1d64:	e0be0405 	stb	r2,-2032(fp)
						break;
    1d68:	00002006 	br	1dec <main+0x610>
					case 56:
						key = 42;
    1d6c:	00800a84 	movi	r2,42
    1d70:	e0be0405 	stb	r2,-2032(fp)
						break;
    1d74:	00001d06 	br	1dec <main+0x610>
					case 57:
						key = 40;
    1d78:	00800a04 	movi	r2,40
    1d7c:	e0be0405 	stb	r2,-2032(fp)
						break;
    1d80:	00001a06 	br	1dec <main+0x610>
					case 45:
						key = 95;
    1d84:	008017c4 	movi	r2,95
    1d88:	e0be0405 	stb	r2,-2032(fp)
						break;
    1d8c:	00001706 	br	1dec <main+0x610>
					case 61:
						key = 43;
    1d90:	00800ac4 	movi	r2,43
    1d94:	e0be0405 	stb	r2,-2032(fp)
						break;
    1d98:	00001406 	br	1dec <main+0x610>
					case 91:
						key = 123;
    1d9c:	00801ec4 	movi	r2,123
    1da0:	e0be0405 	stb	r2,-2032(fp)
						break;
    1da4:	00001106 	br	1dec <main+0x610>
					case 93:
						key = 125;
    1da8:	00801f44 	movi	r2,125
    1dac:	e0be0405 	stb	r2,-2032(fp)
						break;
    1db0:	00000e06 	br	1dec <main+0x610>
					case 59:
						key = 58;
    1db4:	00800e84 	movi	r2,58
    1db8:	e0be0405 	stb	r2,-2032(fp)
						break;
    1dbc:	00000b06 	br	1dec <main+0x610>
					case 39:
						key = 34;
    1dc0:	00800884 	movi	r2,34
    1dc4:	e0be0405 	stb	r2,-2032(fp)
						break;
    1dc8:	00000806 	br	1dec <main+0x610>
					case 44:
						key = 60;
    1dcc:	00800f04 	movi	r2,60
    1dd0:	e0be0405 	stb	r2,-2032(fp)
						break;
    1dd4:	00000506 	br	1dec <main+0x610>
					case 46:
						key = 62;
    1dd8:	00800f84 	movi	r2,62
    1ddc:	e0be0405 	stb	r2,-2032(fp)
						break;
    1de0:	00000206 	br	1dec <main+0x610>
					case 47:
						key = 63;
    1de4:	00800fc4 	movi	r2,63
    1de8:	e0be0405 	stb	r2,-2032(fp)
						break;
					}
				}
				if (username_input == 1)
    1dec:	e0bdfa17 	ldw	r2,-2072(fp)
    1df0:	10800058 	cmpnei	r2,r2,1
    1df4:	10008e1e 	bne	r2,zero,2030 <main+0x854>
				{
					if (userChar < 10)
    1df8:	e0bdf917 	ldw	r2,-2076(fp)
    1dfc:	10800288 	cmpgei	r2,r2,10
    1e00:	1000851e 	bne	r2,zero,2018 <main+0x83c>
					{
						for (i = 411; i < 435; i++)
    1e04:	008066c4 	movi	r2,411
    1e08:	e0be0315 	stw	r2,-2036(fp)
    1e0c:	00001506 	br	1e64 <main+0x688>
						{
							for (j = 0; j < 640; j++)
    1e10:	e03e0215 	stw	zero,-2040(fp)
    1e14:	00000d06 	br	1e4c <main+0x670>
							{
								Vga_Clr_Pixel(VGA_0_BASE, j, i);
    1e18:	e0be0317 	ldw	r2,-2036(fp)
    1e1c:	10c0a024 	muli	r3,r2,640
    1e20:	e0be0217 	ldw	r2,-2040(fp)
    1e24:	1885883a 	add	r2,r3,r2
    1e28:	1085883a 	add	r2,r2,r2
    1e2c:	1085883a 	add	r2,r2,r2
    1e30:	1007883a 	mov	r3,r2
    1e34:	00802834 	movhi	r2,160
    1e38:	1885883a 	add	r2,r3,r2
    1e3c:	10000035 	stwio	zero,0(r2)
				{
					if (userChar < 10)
					{
						for (i = 411; i < 435; i++)
						{
							for (j = 0; j < 640; j++)
    1e40:	e0be0217 	ldw	r2,-2040(fp)
    1e44:	10800044 	addi	r2,r2,1
    1e48:	e0be0215 	stw	r2,-2040(fp)
    1e4c:	e0be0217 	ldw	r2,-2040(fp)
    1e50:	1080a010 	cmplti	r2,r2,640
    1e54:	103ff01e 	bne	r2,zero,1e18 <main+0x63c>
				}
				if (username_input == 1)
				{
					if (userChar < 10)
					{
						for (i = 411; i < 435; i++)
    1e58:	e0be0317 	ldw	r2,-2036(fp)
    1e5c:	10800044 	addi	r2,r2,1
    1e60:	e0be0315 	stw	r2,-2036(fp)
    1e64:	e0be0317 	ldw	r2,-2036(fp)
    1e68:	10806cd0 	cmplti	r2,r2,435
    1e6c:	103fe81e 	bne	r2,zero,1e10 <main+0x634>
							for (j = 0; j < 640; j++)
							{
								Vga_Clr_Pixel(VGA_0_BASE, j, i);
							}
						}
						for (i = userChar+1; i > cursor_x_char-26; i--)
    1e70:	e0bdf917 	ldw	r2,-2076(fp)
    1e74:	10800044 	addi	r2,r2,1
    1e78:	e0be0315 	stw	r2,-2036(fp)
    1e7c:	00000c06 	br	1eb0 <main+0x6d4>
						{
							username[i] = username[i-1];
    1e80:	e13e0317 	ldw	r4,-2036(fp)
    1e84:	e0be0317 	ldw	r2,-2036(fp)
    1e88:	10ffffc4 	addi	r3,r2,-1
    1e8c:	e0bfd844 	addi	r2,fp,-159
    1e90:	10c5883a 	add	r2,r2,r3
    1e94:	10c00003 	ldbu	r3,0(r2)
    1e98:	e0bfd844 	addi	r2,fp,-159
    1e9c:	1105883a 	add	r2,r2,r4
    1ea0:	10c00005 	stb	r3,0(r2)
							for (j = 0; j < 640; j++)
							{
								Vga_Clr_Pixel(VGA_0_BASE, j, i);
							}
						}
						for (i = userChar+1; i > cursor_x_char-26; i--)
    1ea4:	e0be0317 	ldw	r2,-2036(fp)
    1ea8:	10bfffc4 	addi	r2,r2,-1
    1eac:	e0be0315 	stw	r2,-2036(fp)
    1eb0:	e0bdf517 	ldw	r2,-2092(fp)
    1eb4:	10fff984 	addi	r3,r2,-26
    1eb8:	e0be0317 	ldw	r2,-2036(fp)
    1ebc:	18bff016 	blt	r3,r2,1e80 <main+0x6a4>
						{
							username[i] = username[i-1];
						}
						username[cursor_x_char-26] = key;
    1ec0:	e0bdf517 	ldw	r2,-2092(fp)
    1ec4:	113ff984 	addi	r4,r2,-26
    1ec8:	e0be0403 	ldbu	r2,-2032(fp)
    1ecc:	1007883a 	mov	r3,r2
    1ed0:	e0bfd844 	addi	r2,fp,-159
    1ed4:	1105883a 	add	r2,r2,r4
    1ed8:	10c00005 	stb	r3,0(r2)
						for (j = cursor_y; j < cursor_y+16; j++)
    1edc:	e0bdf417 	ldw	r2,-2096(fp)
    1ee0:	e0be0215 	stw	r2,-2040(fp)
    1ee4:	00000d06 	br	1f1c <main+0x740>
							Vga_Clr_Pixel(VGA_0_BASE, cursor_x, j);
    1ee8:	e0be0217 	ldw	r2,-2040(fp)
    1eec:	10c0a024 	muli	r3,r2,640
    1ef0:	e0bdf617 	ldw	r2,-2088(fp)
    1ef4:	1885883a 	add	r2,r3,r2
    1ef8:	1085883a 	add	r2,r2,r2
    1efc:	1085883a 	add	r2,r2,r2
    1f00:	1007883a 	mov	r3,r2
    1f04:	00802834 	movhi	r2,160
    1f08:	1885883a 	add	r2,r3,r2
    1f0c:	10000035 	stwio	zero,0(r2)
						for (i = userChar+1; i > cursor_x_char-26; i--)
						{
							username[i] = username[i-1];
						}
						username[cursor_x_char-26] = key;
						for (j = cursor_y; j < cursor_y+16; j++)
    1f10:	e0be0217 	ldw	r2,-2040(fp)
    1f14:	10800044 	addi	r2,r2,1
    1f18:	e0be0215 	stw	r2,-2040(fp)
    1f1c:	e0bdf417 	ldw	r2,-2096(fp)
    1f20:	10c00404 	addi	r3,r2,16
    1f24:	e0be0217 	ldw	r2,-2040(fp)
    1f28:	10ffef16 	blt	r2,r3,1ee8 <main+0x70c>
							Vga_Clr_Pixel(VGA_0_BASE, cursor_x, j);
						for (i = cursor_x_char-26; i < userChar+1; i++)
    1f2c:	e0bdf517 	ldw	r2,-2092(fp)
    1f30:	10bff984 	addi	r2,r2,-26
    1f34:	e0be0315 	stw	r2,-2036(fp)
    1f38:	00000f06 	br	1f78 <main+0x79c>
							put_vga_char(username[i], i+26, 28);
    1f3c:	e0fe0317 	ldw	r3,-2036(fp)
    1f40:	e0bfd844 	addi	r2,fp,-159
    1f44:	10c5883a 	add	r2,r2,r3
    1f48:	10800003 	ldbu	r2,0(r2)
    1f4c:	11003fcc 	andi	r4,r2,255
    1f50:	2100201c 	xori	r4,r4,128
    1f54:	213fe004 	addi	r4,r4,-128
    1f58:	e0be0317 	ldw	r2,-2036(fp)
    1f5c:	10800684 	addi	r2,r2,26
    1f60:	100b883a 	mov	r5,r2
    1f64:	01800704 	movi	r6,28
    1f68:	00010540 	call	1054 <put_vga_char>
							username[i] = username[i-1];
						}
						username[cursor_x_char-26] = key;
						for (j = cursor_y; j < cursor_y+16; j++)
							Vga_Clr_Pixel(VGA_0_BASE, cursor_x, j);
						for (i = cursor_x_char-26; i < userChar+1; i++)
    1f6c:	e0be0317 	ldw	r2,-2036(fp)
    1f70:	10800044 	addi	r2,r2,1
    1f74:	e0be0315 	stw	r2,-2036(fp)
    1f78:	e0bdf917 	ldw	r2,-2076(fp)
    1f7c:	10c00044 	addi	r3,r2,1
    1f80:	e0be0317 	ldw	r2,-2036(fp)
    1f84:	10ffed16 	blt	r2,r3,1f3c <main+0x760>
							put_vga_char(username[i], i+26, 28);
						cursor_x_char++;
    1f88:	e0bdf517 	ldw	r2,-2092(fp)
    1f8c:	10800044 	addi	r2,r2,1
    1f90:	e0bdf515 	stw	r2,-2092(fp)
						cursor_x = (cursor_x_char*8)-1;
    1f94:	e0bdf517 	ldw	r2,-2092(fp)
    1f98:	100490fa 	slli	r2,r2,3
    1f9c:	10bfffc4 	addi	r2,r2,-1
    1fa0:	e0bdf615 	stw	r2,-2088(fp)
						cursor_y = cursor_y_char*16;
    1fa4:	e0bdf317 	ldw	r2,-2100(fp)
    1fa8:	1004913a 	slli	r2,r2,4
    1fac:	e0bdf415 	stw	r2,-2096(fp)
						for (j = cursor_y; j < cursor_y+16; j++)
    1fb0:	e0bdf417 	ldw	r2,-2096(fp)
    1fb4:	e0be0215 	stw	r2,-2040(fp)
    1fb8:	00000f06 	br	1ff8 <main+0x81c>
						{
							Vga_Set_Pixel(VGA_0_BASE, cursor_x, j);
    1fbc:	e0be0217 	ldw	r2,-2040(fp)
    1fc0:	10c0a024 	muli	r3,r2,640
    1fc4:	e0bdf617 	ldw	r2,-2088(fp)
    1fc8:	1885883a 	add	r2,r3,r2
    1fcc:	1085883a 	add	r2,r2,r2
    1fd0:	1085883a 	add	r2,r2,r2
    1fd4:	1007883a 	mov	r3,r2
    1fd8:	00802834 	movhi	r2,160
    1fdc:	1885883a 	add	r2,r3,r2
    1fe0:	1007883a 	mov	r3,r2
    1fe4:	00800044 	movi	r2,1
    1fe8:	18800035 	stwio	r2,0(r3)
						for (i = cursor_x_char-26; i < userChar+1; i++)
							put_vga_char(username[i], i+26, 28);
						cursor_x_char++;
						cursor_x = (cursor_x_char*8)-1;
						cursor_y = cursor_y_char*16;
						for (j = cursor_y; j < cursor_y+16; j++)
    1fec:	e0be0217 	ldw	r2,-2040(fp)
    1ff0:	10800044 	addi	r2,r2,1
    1ff4:	e0be0215 	stw	r2,-2040(fp)
    1ff8:	e0bdf417 	ldw	r2,-2096(fp)
    1ffc:	10c00404 	addi	r3,r2,16
    2000:	e0be0217 	ldw	r2,-2040(fp)
    2004:	10ffed16 	blt	r2,r3,1fbc <main+0x7e0>
						{
							Vga_Set_Pixel(VGA_0_BASE, cursor_x, j);
						}
						userChar++;
    2008:	e0bdf917 	ldw	r2,-2076(fp)
    200c:	10800044 	addi	r2,r2,1
    2010:	e0bdf915 	stw	r2,-2076(fp)
    2014:	003eb706 	br	1af4 <main+0x318>
					}
					else
						put_vga_string("Cannot exceed maximum of 10 characters for username.", 0, 26);
    2018:	01000074 	movhi	r4,1
    201c:	211b5304 	addi	r4,r4,27980
    2020:	000b883a 	mov	r5,zero
    2024:	01800684 	movi	r6,26
    2028:	00011980 	call	1198 <put_vga_string>
    202c:	003eb106 	br	1af4 <main+0x318>
				}
				else
				{
					if (curMsgChar < MAX_MSG_LENGTH_USER) {
    2030:	e0fe0017 	ldw	r3,-2048(fp)
    2034:	e0bdf817 	ldw	r2,-2080(fp)
    2038:	18beae0e 	bge	r3,r2,1af4 <main+0x318>
						if (cursor_y_char == 28)
    203c:	e0bdf317 	ldw	r2,-2100(fp)
    2040:	10800718 	cmpnei	r2,r2,28
    2044:	10001c1e 	bne	r2,zero,20b8 <main+0x8dc>
						{
							for (i = curMsgChar+1; i > cursor_x_char-25; i--)
    2048:	e0be0017 	ldw	r2,-2048(fp)
    204c:	10800044 	addi	r2,r2,1
    2050:	e0be0315 	stw	r2,-2036(fp)
    2054:	00000d06 	br	208c <main+0x8b0>
							{
								UDP_PACKET_PAYLOAD[i] = UDP_PACKET_PAYLOAD[i-1];
    2058:	e0fe0317 	ldw	r3,-2036(fp)
    205c:	00800074 	movhi	r2,1
    2060:	109fa084 	addi	r2,r2,32386
    2064:	1889883a 	add	r4,r3,r2
    2068:	e0fe0317 	ldw	r3,-2036(fp)
    206c:	00800074 	movhi	r2,1
    2070:	109fa044 	addi	r2,r2,32385
    2074:	1885883a 	add	r2,r3,r2
    2078:	10800003 	ldbu	r2,0(r2)
    207c:	20800005 	stb	r2,0(r4)
				else
				{
					if (curMsgChar < MAX_MSG_LENGTH_USER) {
						if (cursor_y_char == 28)
						{
							for (i = curMsgChar+1; i > cursor_x_char-25; i--)
    2080:	e0be0317 	ldw	r2,-2036(fp)
    2084:	10bfffc4 	addi	r2,r2,-1
    2088:	e0be0315 	stw	r2,-2036(fp)
    208c:	e0bdf517 	ldw	r2,-2092(fp)
    2090:	10fff9c4 	addi	r3,r2,-25
    2094:	e0be0317 	ldw	r2,-2036(fp)
    2098:	18bfef16 	blt	r3,r2,2058 <main+0x87c>
							{
								UDP_PACKET_PAYLOAD[i] = UDP_PACKET_PAYLOAD[i-1];
							}
							UDP_PACKET_PAYLOAD[cursor_x_char-25] = key;
    209c:	e0fdf517 	ldw	r3,-2092(fp)
    20a0:	00800074 	movhi	r2,1
    20a4:	109f9a44 	addi	r2,r2,32361
    20a8:	1887883a 	add	r3,r3,r2
    20ac:	e0be0403 	ldbu	r2,-2032(fp)
    20b0:	18800005 	stb	r2,0(r3)
    20b4:	00001e06 	br	2130 <main+0x954>

						}
						else if (cursor_y_char == 29)
    20b8:	e0bdf317 	ldw	r2,-2100(fp)
    20bc:	10800758 	cmpnei	r2,r2,29
    20c0:	10001b1e 	bne	r2,zero,2130 <main+0x954>
						{
							for (i = curMsgChar+1; i > cursor_x_char+52; i--)
    20c4:	e0be0017 	ldw	r2,-2048(fp)
    20c8:	10800044 	addi	r2,r2,1
    20cc:	e0be0315 	stw	r2,-2036(fp)
    20d0:	00000d06 	br	2108 <main+0x92c>
							{
								UDP_PACKET_PAYLOAD[i] = UDP_PACKET_PAYLOAD[i-1];
    20d4:	e0fe0317 	ldw	r3,-2036(fp)
    20d8:	00800074 	movhi	r2,1
    20dc:	109fa084 	addi	r2,r2,32386
    20e0:	1889883a 	add	r4,r3,r2
    20e4:	e0fe0317 	ldw	r3,-2036(fp)
    20e8:	00800074 	movhi	r2,1
    20ec:	109fa044 	addi	r2,r2,32385
    20f0:	1885883a 	add	r2,r3,r2
    20f4:	10800003 	ldbu	r2,0(r2)
    20f8:	20800005 	stb	r2,0(r4)
							UDP_PACKET_PAYLOAD[cursor_x_char-25] = key;

						}
						else if (cursor_y_char == 29)
						{
							for (i = curMsgChar+1; i > cursor_x_char+52; i--)
    20fc:	e0be0317 	ldw	r2,-2036(fp)
    2100:	10bfffc4 	addi	r2,r2,-1
    2104:	e0be0315 	stw	r2,-2036(fp)
    2108:	e0bdf517 	ldw	r2,-2092(fp)
    210c:	10c00d04 	addi	r3,r2,52
    2110:	e0be0317 	ldw	r2,-2036(fp)
    2114:	18bfef16 	blt	r3,r2,20d4 <main+0x8f8>
							{
								UDP_PACKET_PAYLOAD[i] = UDP_PACKET_PAYLOAD[i-1];
							}
							UDP_PACKET_PAYLOAD[cursor_x_char+53] = key;
    2118:	e0fdf517 	ldw	r3,-2092(fp)
    211c:	00800074 	movhi	r2,1
    2120:	109fadc4 	addi	r2,r2,32439
    2124:	1887883a 	add	r3,r3,r2
    2128:	e0be0403 	ldbu	r2,-2032(fp)
    212c:	18800005 	stb	r2,0(r3)
						}
						for (j = cursor_y; j < cursor_y+16; j++)
    2130:	e0bdf417 	ldw	r2,-2096(fp)
    2134:	e0be0215 	stw	r2,-2040(fp)
    2138:	00000d06 	br	2170 <main+0x994>
							Vga_Clr_Pixel(VGA_0_BASE, cursor_x, j);
    213c:	e0be0217 	ldw	r2,-2040(fp)
    2140:	10c0a024 	muli	r3,r2,640
    2144:	e0bdf617 	ldw	r2,-2088(fp)
    2148:	1885883a 	add	r2,r3,r2
    214c:	1085883a 	add	r2,r2,r2
    2150:	1085883a 	add	r2,r2,r2
    2154:	1007883a 	mov	r3,r2
    2158:	00802834 	movhi	r2,160
    215c:	1885883a 	add	r2,r3,r2
    2160:	10000035 	stwio	zero,0(r2)
							{
								UDP_PACKET_PAYLOAD[i] = UDP_PACKET_PAYLOAD[i-1];
							}
							UDP_PACKET_PAYLOAD[cursor_x_char+53] = key;
						}
						for (j = cursor_y; j < cursor_y+16; j++)
    2164:	e0be0217 	ldw	r2,-2040(fp)
    2168:	10800044 	addi	r2,r2,1
    216c:	e0be0215 	stw	r2,-2040(fp)
    2170:	e0bdf417 	ldw	r2,-2096(fp)
    2174:	10c00404 	addi	r3,r2,16
    2178:	e0be0217 	ldw	r2,-2040(fp)
    217c:	10ffef16 	blt	r2,r3,213c <main+0x960>
							Vga_Clr_Pixel(VGA_0_BASE, cursor_x, j);
						if (curMsgLine == 28 && cursor_y_char == 28)
    2180:	e0bdfe17 	ldw	r2,-2056(fp)
    2184:	10800718 	cmpnei	r2,r2,28
    2188:	1000321e 	bne	r2,zero,2254 <main+0xa78>
    218c:	e0bdf317 	ldw	r2,-2100(fp)
    2190:	10800718 	cmpnei	r2,r2,28
    2194:	10002f1e 	bne	r2,zero,2254 <main+0xa78>
						{
							for (i = cursor_x_char-25; i < curMsgChar+1; i++)
    2198:	e0bdf517 	ldw	r2,-2092(fp)
    219c:	10bff9c4 	addi	r2,r2,-25
    21a0:	e0be0315 	stw	r2,-2036(fp)
    21a4:	00001006 	br	21e8 <main+0xa0c>
								put_vga_char(UDP_PACKET_PAYLOAD[i], i+25, cursor_y_char);
    21a8:	e0fe0317 	ldw	r3,-2036(fp)
    21ac:	00800074 	movhi	r2,1
    21b0:	109fa084 	addi	r2,r2,32386
    21b4:	1885883a 	add	r2,r3,r2
    21b8:	10800003 	ldbu	r2,0(r2)
    21bc:	11003fcc 	andi	r4,r2,255
    21c0:	2100201c 	xori	r4,r4,128
    21c4:	213fe004 	addi	r4,r4,-128
    21c8:	e0be0317 	ldw	r2,-2036(fp)
    21cc:	10800644 	addi	r2,r2,25
    21d0:	100b883a 	mov	r5,r2
    21d4:	e1bdf317 	ldw	r6,-2100(fp)
    21d8:	00010540 	call	1054 <put_vga_char>
						}
						for (j = cursor_y; j < cursor_y+16; j++)
							Vga_Clr_Pixel(VGA_0_BASE, cursor_x, j);
						if (curMsgLine == 28 && cursor_y_char == 28)
						{
							for (i = cursor_x_char-25; i < curMsgChar+1; i++)
    21dc:	e0be0317 	ldw	r2,-2036(fp)
    21e0:	10800044 	addi	r2,r2,1
    21e4:	e0be0315 	stw	r2,-2036(fp)
    21e8:	e0be0017 	ldw	r2,-2048(fp)
    21ec:	10c00044 	addi	r3,r2,1
    21f0:	e0be0317 	ldw	r2,-2036(fp)
    21f4:	10ffec16 	blt	r2,r3,21a8 <main+0x9cc>
								put_vga_char(UDP_PACKET_PAYLOAD[i], i+25, cursor_y_char);
							if (curMsgChar > 53)
    21f8:	e0be0017 	ldw	r2,-2048(fp)
    21fc:	10800d90 	cmplti	r2,r2,54
    2200:	1000141e 	bne	r2,zero,2254 <main+0xa78>
								for (i = 0; i < curMsgChar+1-53; i++)
    2204:	e03e0315 	stw	zero,-2036(fp)
    2208:	00000e06 	br	2244 <main+0xa68>
									put_vga_char(UDP_PACKET_PAYLOAD[i+53], i, curMsgLine);
    220c:	e0fe0317 	ldw	r3,-2036(fp)
    2210:	00800074 	movhi	r2,1
    2214:	109fadc4 	addi	r2,r2,32439
    2218:	1885883a 	add	r2,r3,r2
    221c:	10800003 	ldbu	r2,0(r2)
    2220:	11003fcc 	andi	r4,r2,255
    2224:	2100201c 	xori	r4,r4,128
    2228:	213fe004 	addi	r4,r4,-128
    222c:	e17e0317 	ldw	r5,-2036(fp)
    2230:	e1bdfe17 	ldw	r6,-2056(fp)
    2234:	00010540 	call	1054 <put_vga_char>
						if (curMsgLine == 28 && cursor_y_char == 28)
						{
							for (i = cursor_x_char-25; i < curMsgChar+1; i++)
								put_vga_char(UDP_PACKET_PAYLOAD[i], i+25, cursor_y_char);
							if (curMsgChar > 53)
								for (i = 0; i < curMsgChar+1-53; i++)
    2238:	e0be0317 	ldw	r2,-2036(fp)
    223c:	10800044 	addi	r2,r2,1
    2240:	e0be0315 	stw	r2,-2036(fp)
    2244:	e0be0017 	ldw	r2,-2048(fp)
    2248:	10fff304 	addi	r3,r2,-52
    224c:	e0be0317 	ldw	r2,-2036(fp)
    2250:	10ffee16 	blt	r2,r3,220c <main+0xa30>
									put_vga_char(UDP_PACKET_PAYLOAD[i+53], i, curMsgLine);
						}
						if (curMsgLine == 29 && cursor_y_char == 28)
    2254:	e0bdfe17 	ldw	r2,-2056(fp)
    2258:	10800758 	cmpnei	r2,r2,29
    225c:	10002f1e 	bne	r2,zero,231c <main+0xb40>
    2260:	e0bdf317 	ldw	r2,-2100(fp)
    2264:	10800718 	cmpnei	r2,r2,28
    2268:	10002c1e 	bne	r2,zero,231c <main+0xb40>
						{
							for (i = cursor_x_char-25; i < 53; i++)
    226c:	e0bdf517 	ldw	r2,-2092(fp)
    2270:	10bff9c4 	addi	r2,r2,-25
    2274:	e0be0315 	stw	r2,-2036(fp)
    2278:	00001006 	br	22bc <main+0xae0>
								put_vga_char(UDP_PACKET_PAYLOAD[i], i+25, cursor_y_char);
    227c:	e0fe0317 	ldw	r3,-2036(fp)
    2280:	00800074 	movhi	r2,1
    2284:	109fa084 	addi	r2,r2,32386
    2288:	1885883a 	add	r2,r3,r2
    228c:	10800003 	ldbu	r2,0(r2)
    2290:	11003fcc 	andi	r4,r2,255
    2294:	2100201c 	xori	r4,r4,128
    2298:	213fe004 	addi	r4,r4,-128
    229c:	e0be0317 	ldw	r2,-2036(fp)
    22a0:	10800644 	addi	r2,r2,25
    22a4:	100b883a 	mov	r5,r2
    22a8:	e1bdf317 	ldw	r6,-2100(fp)
    22ac:	00010540 	call	1054 <put_vga_char>
								for (i = 0; i < curMsgChar+1-53; i++)
									put_vga_char(UDP_PACKET_PAYLOAD[i+53], i, curMsgLine);
						}
						if (curMsgLine == 29 && cursor_y_char == 28)
						{
							for (i = cursor_x_char-25; i < 53; i++)
    22b0:	e0be0317 	ldw	r2,-2036(fp)
    22b4:	10800044 	addi	r2,r2,1
    22b8:	e0be0315 	stw	r2,-2036(fp)
    22bc:	e0be0317 	ldw	r2,-2036(fp)
    22c0:	10800d50 	cmplti	r2,r2,53
    22c4:	103fed1e 	bne	r2,zero,227c <main+0xaa0>
								put_vga_char(UDP_PACKET_PAYLOAD[i], i+25, cursor_y_char);
							for (i = 0; i < curMsgChar+1-53; i++)
    22c8:	e03e0315 	stw	zero,-2036(fp)
    22cc:	00000e06 	br	2308 <main+0xb2c>
								put_vga_char(UDP_PACKET_PAYLOAD[i+53], i, curMsgLine);
    22d0:	e0fe0317 	ldw	r3,-2036(fp)
    22d4:	00800074 	movhi	r2,1
    22d8:	109fadc4 	addi	r2,r2,32439
    22dc:	1885883a 	add	r2,r3,r2
    22e0:	10800003 	ldbu	r2,0(r2)
    22e4:	11003fcc 	andi	r4,r2,255
    22e8:	2100201c 	xori	r4,r4,128
    22ec:	213fe004 	addi	r4,r4,-128
    22f0:	e17e0317 	ldw	r5,-2036(fp)
    22f4:	e1bdfe17 	ldw	r6,-2056(fp)
    22f8:	00010540 	call	1054 <put_vga_char>
						}
						if (curMsgLine == 29 && cursor_y_char == 28)
						{
							for (i = cursor_x_char-25; i < 53; i++)
								put_vga_char(UDP_PACKET_PAYLOAD[i], i+25, cursor_y_char);
							for (i = 0; i < curMsgChar+1-53; i++)
    22fc:	e0be0317 	ldw	r2,-2036(fp)
    2300:	10800044 	addi	r2,r2,1
    2304:	e0be0315 	stw	r2,-2036(fp)
    2308:	e0be0017 	ldw	r2,-2048(fp)
    230c:	10fff304 	addi	r3,r2,-52
    2310:	e0be0317 	ldw	r2,-2036(fp)
    2314:	10ffee16 	blt	r2,r3,22d0 <main+0xaf4>
								put_vga_char(UDP_PACKET_PAYLOAD[i], i+25, cursor_y_char);
							if (curMsgChar > 53)
								for (i = 0; i < curMsgChar+1-53; i++)
									put_vga_char(UDP_PACKET_PAYLOAD[i+53], i, curMsgLine);
						}
						if (curMsgLine == 29 && cursor_y_char == 28)
    2318:	00003906 	br	2400 <main+0xc24>
							for (i = cursor_x_char-25; i < 53; i++)
								put_vga_char(UDP_PACKET_PAYLOAD[i], i+25, cursor_y_char);
							for (i = 0; i < curMsgChar+1-53; i++)
								put_vga_char(UDP_PACKET_PAYLOAD[i+53], i, curMsgLine);
						}
						else if (curMsgLine == 29 && cursor_y_char == 29)
    231c:	e0bdfe17 	ldw	r2,-2056(fp)
    2320:	10800758 	cmpnei	r2,r2,29
    2324:	1000191e 	bne	r2,zero,238c <main+0xbb0>
    2328:	e0bdf317 	ldw	r2,-2100(fp)
    232c:	10800758 	cmpnei	r2,r2,29
    2330:	1000161e 	bne	r2,zero,238c <main+0xbb0>
						{
							for (i = cursor_x_char; i < curMsgChar+1-53; i++)
    2334:	e0bdf517 	ldw	r2,-2092(fp)
    2338:	e0be0315 	stw	r2,-2036(fp)
    233c:	00000e06 	br	2378 <main+0xb9c>
								put_vga_char(UDP_PACKET_PAYLOAD[i+53], i, cursor_y_char);
    2340:	e0fe0317 	ldw	r3,-2036(fp)
    2344:	00800074 	movhi	r2,1
    2348:	109fadc4 	addi	r2,r2,32439
    234c:	1885883a 	add	r2,r3,r2
    2350:	10800003 	ldbu	r2,0(r2)
    2354:	11003fcc 	andi	r4,r2,255
    2358:	2100201c 	xori	r4,r4,128
    235c:	213fe004 	addi	r4,r4,-128
    2360:	e17e0317 	ldw	r5,-2036(fp)
    2364:	e1bdf317 	ldw	r6,-2100(fp)
    2368:	00010540 	call	1054 <put_vga_char>
							for (i = 0; i < curMsgChar+1-53; i++)
								put_vga_char(UDP_PACKET_PAYLOAD[i+53], i, curMsgLine);
						}
						else if (curMsgLine == 29 && cursor_y_char == 29)
						{
							for (i = cursor_x_char; i < curMsgChar+1-53; i++)
    236c:	e0be0317 	ldw	r2,-2036(fp)
    2370:	10800044 	addi	r2,r2,1
    2374:	e0be0315 	stw	r2,-2036(fp)
    2378:	e0be0017 	ldw	r2,-2048(fp)
    237c:	10fff304 	addi	r3,r2,-52
    2380:	e0be0317 	ldw	r2,-2036(fp)
    2384:	10ffee16 	blt	r2,r3,2340 <main+0xb64>
							for (i = cursor_x_char-25; i < 53; i++)
								put_vga_char(UDP_PACKET_PAYLOAD[i], i+25, cursor_y_char);
							for (i = 0; i < curMsgChar+1-53; i++)
								put_vga_char(UDP_PACKET_PAYLOAD[i+53], i, curMsgLine);
						}
						else if (curMsgLine == 29 && cursor_y_char == 29)
    2388:	00001d06 	br	2400 <main+0xc24>
						{
							for (i = cursor_x_char; i < curMsgChar+1-53; i++)
								put_vga_char(UDP_PACKET_PAYLOAD[i+53], i, cursor_y_char);
						}
						else if (curMsgLine == 28 && cursor_y_char == 29)
    238c:	e0bdfe17 	ldw	r2,-2056(fp)
    2390:	10800718 	cmpnei	r2,r2,28
    2394:	10001a1e 	bne	r2,zero,2400 <main+0xc24>
    2398:	e0bdf317 	ldw	r2,-2100(fp)
    239c:	10800758 	cmpnei	r2,r2,29
    23a0:	1000171e 	bne	r2,zero,2400 <main+0xc24>
						{
							for (i = cursor_x_char; i < curMsgChar+1-53; i++)
    23a4:	e0bdf517 	ldw	r2,-2092(fp)
    23a8:	e0be0315 	stw	r2,-2036(fp)
    23ac:	00000e06 	br	23e8 <main+0xc0c>
								put_vga_char(UDP_PACKET_PAYLOAD[i+53], i, cursor_y_char);
    23b0:	e0fe0317 	ldw	r3,-2036(fp)
    23b4:	00800074 	movhi	r2,1
    23b8:	109fadc4 	addi	r2,r2,32439
    23bc:	1885883a 	add	r2,r3,r2
    23c0:	10800003 	ldbu	r2,0(r2)
    23c4:	11003fcc 	andi	r4,r2,255
    23c8:	2100201c 	xori	r4,r4,128
    23cc:	213fe004 	addi	r4,r4,-128
    23d0:	e17e0317 	ldw	r5,-2036(fp)
    23d4:	e1bdf317 	ldw	r6,-2100(fp)
    23d8:	00010540 	call	1054 <put_vga_char>
							for (i = cursor_x_char; i < curMsgChar+1-53; i++)
								put_vga_char(UDP_PACKET_PAYLOAD[i+53], i, cursor_y_char);
						}
						else if (curMsgLine == 28 && cursor_y_char == 29)
						{
							for (i = cursor_x_char; i < curMsgChar+1-53; i++)
    23dc:	e0be0317 	ldw	r2,-2036(fp)
    23e0:	10800044 	addi	r2,r2,1
    23e4:	e0be0315 	stw	r2,-2036(fp)
    23e8:	e0be0017 	ldw	r2,-2048(fp)
    23ec:	10fff304 	addi	r3,r2,-52
    23f0:	e0be0317 	ldw	r2,-2036(fp)
    23f4:	10ffee16 	blt	r2,r3,23b0 <main+0xbd4>
								put_vga_char(UDP_PACKET_PAYLOAD[i+53], i, cursor_y_char);
							curMsgLine = 29;
    23f8:	00800744 	movi	r2,29
    23fc:	e0bdfe15 	stw	r2,-2056(fp)
						}
						cursor_x_char++;
    2400:	e0bdf517 	ldw	r2,-2092(fp)
    2404:	10800044 	addi	r2,r2,1
    2408:	e0bdf515 	stw	r2,-2092(fp)
						cursor_x = (cursor_x_char*8)-1;
    240c:	e0bdf517 	ldw	r2,-2092(fp)
    2410:	100490fa 	slli	r2,r2,3
    2414:	10bfffc4 	addi	r2,r2,-1
    2418:	e0bdf615 	stw	r2,-2088(fp)
						cursor_y = cursor_y_char*16;
    241c:	e0bdf317 	ldw	r2,-2100(fp)
    2420:	1004913a 	slli	r2,r2,4
    2424:	e0bdf415 	stw	r2,-2096(fp)
						//						put_vga_char(key, curLineChar, curMsgLine );
						for (j = cursor_y; j < cursor_y+16; j++)
    2428:	e0bdf417 	ldw	r2,-2096(fp)
    242c:	e0be0215 	stw	r2,-2040(fp)
    2430:	00000f06 	br	2470 <main+0xc94>
						{
							Vga_Set_Pixel(VGA_0_BASE, cursor_x, j);
    2434:	e0be0217 	ldw	r2,-2040(fp)
    2438:	10c0a024 	muli	r3,r2,640
    243c:	e0bdf617 	ldw	r2,-2088(fp)
    2440:	1885883a 	add	r2,r3,r2
    2444:	1085883a 	add	r2,r2,r2
    2448:	1085883a 	add	r2,r2,r2
    244c:	1007883a 	mov	r3,r2
    2450:	00802834 	movhi	r2,160
    2454:	1885883a 	add	r2,r3,r2
    2458:	1007883a 	mov	r3,r2
    245c:	00800044 	movi	r2,1
    2460:	18800035 	stwio	r2,0(r3)
						}
						cursor_x_char++;
						cursor_x = (cursor_x_char*8)-1;
						cursor_y = cursor_y_char*16;
						//						put_vga_char(key, curLineChar, curMsgLine );
						for (j = cursor_y; j < cursor_y+16; j++)
    2464:	e0be0217 	ldw	r2,-2040(fp)
    2468:	10800044 	addi	r2,r2,1
    246c:	e0be0215 	stw	r2,-2040(fp)
    2470:	e0bdf417 	ldw	r2,-2096(fp)
    2474:	10c00404 	addi	r3,r2,16
    2478:	e0be0217 	ldw	r2,-2040(fp)
    247c:	10ffed16 	blt	r2,r3,2434 <main+0xc58>
						{
							Vga_Set_Pixel(VGA_0_BASE, cursor_x, j);
						}
						curMsgChar++;
    2480:	e0be0017 	ldw	r2,-2048(fp)
    2484:	10800044 	addi	r2,r2,1
    2488:	e0be0015 	stw	r2,-2048(fp)
						curLineChar++;
    248c:	e0bdff17 	ldw	r2,-2052(fp)
    2490:	10800044 	addi	r2,r2,1
    2494:	e0bdff15 	stw	r2,-2052(fp)
						if (cursor_x_char == 78 && cursor_y_char == 28)
    2498:	e0bdf517 	ldw	r2,-2092(fp)
    249c:	10801398 	cmpnei	r2,r2,78
    24a0:	1000061e 	bne	r2,zero,24bc <main+0xce0>
    24a4:	e0bdf317 	ldw	r2,-2100(fp)
    24a8:	10800718 	cmpnei	r2,r2,28
    24ac:	1000031e 	bne	r2,zero,24bc <main+0xce0>
						{
							cursor_x_char = 0;
    24b0:	e03df515 	stw	zero,-2092(fp)
							cursor_y_char = 29;
    24b4:	00800744 	movi	r2,29
    24b8:	e0bdf315 	stw	r2,-2100(fp)
						}
						if (curLineChar == 78) {
    24bc:	e0bdff17 	ldw	r2,-2052(fp)
    24c0:	10801398 	cmpnei	r2,r2,78
    24c4:	1000041e 	bne	r2,zero,24d8 <main+0xcfc>
							curLineChar = 0;
    24c8:	e03dff15 	stw	zero,-2052(fp)
							curMsgLine = curMsgLine + 1;
    24cc:	e0bdfe17 	ldw	r2,-2056(fp)
    24d0:	10800044 	addi	r2,r2,1
    24d4:	e0bdfe15 	stw	r2,-2056(fp)
						}
						if (curMsgChar == 1) {
    24d8:	e0be0017 	ldw	r2,-2048(fp)
    24dc:	10800058 	cmpnei	r2,r2,1
    24e0:	103d841e 	bne	r2,zero,1af4 <main+0x318>
							for (i = 411; i < 435; i++)
    24e4:	008066c4 	movi	r2,411
    24e8:	e0be0315 	stw	r2,-2036(fp)
    24ec:	00001506 	br	2544 <main+0xd68>
							{
								for (j = 0; j < 640; j++)
    24f0:	e03e0215 	stw	zero,-2040(fp)
    24f4:	00000d06 	br	252c <main+0xd50>
								{
									Vga_Clr_Pixel(VGA_0_BASE, j, i);
    24f8:	e0be0317 	ldw	r2,-2036(fp)
    24fc:	10c0a024 	muli	r3,r2,640
    2500:	e0be0217 	ldw	r2,-2040(fp)
    2504:	1885883a 	add	r2,r3,r2
    2508:	1085883a 	add	r2,r2,r2
    250c:	1085883a 	add	r2,r2,r2
    2510:	1007883a 	mov	r3,r2
    2514:	00802834 	movhi	r2,160
    2518:	1885883a 	add	r2,r3,r2
    251c:	10000035 	stwio	zero,0(r2)
							curMsgLine = curMsgLine + 1;
						}
						if (curMsgChar == 1) {
							for (i = 411; i < 435; i++)
							{
								for (j = 0; j < 640; j++)
    2520:	e0be0217 	ldw	r2,-2040(fp)
    2524:	10800044 	addi	r2,r2,1
    2528:	e0be0215 	stw	r2,-2040(fp)
    252c:	e0be0217 	ldw	r2,-2040(fp)
    2530:	1080a010 	cmplti	r2,r2,640
    2534:	103ff01e 	bne	r2,zero,24f8 <main+0xd1c>
						if (curLineChar == 78) {
							curLineChar = 0;
							curMsgLine = curMsgLine + 1;
						}
						if (curMsgChar == 1) {
							for (i = 411; i < 435; i++)
    2538:	e0be0317 	ldw	r2,-2036(fp)
    253c:	10800044 	addi	r2,r2,1
    2540:	e0be0315 	stw	r2,-2036(fp)
    2544:	e0be0317 	ldw	r2,-2036(fp)
    2548:	10806cd0 	cmplti	r2,r2,435
    254c:	103fe81e 	bne	r2,zero,24f0 <main+0xd14>
								}
							}
						}
					}
				}
				break ;
    2550:	003d6806 	br	1af4 <main+0x318>
			case KB_BINARY_MAKE_CODE :
				printf(" MAKE CODE :\t%X\n", key ); //print other unknown breakcode
    2554:	e0be0403 	ldbu	r2,-2032(fp)
    2558:	11403fcc 	andi	r5,r2,255
    255c:	01000074 	movhi	r4,1
    2560:	211b4e04 	addi	r4,r4,27960
    2564:	00050f40 	call	50f4 <printf>
				switch (key ) {
    2568:	e0be0403 	ldbu	r2,-2032(fp)
    256c:	10803fcc 	andi	r2,r2,255
    2570:	e0bffc15 	stw	r2,-16(fp)
    2574:	e13ffc17 	ldw	r4,-16(fp)
    2578:	20801660 	cmpeqi	r2,r4,89
    257c:	10035d1e 	bne	r2,zero,32f4 <main+0x1b18>
    2580:	e0fffc17 	ldw	r3,-16(fp)
    2584:	18801688 	cmpgei	r2,r3,90
    2588:	1000071e 	bne	r2,zero,25a8 <main+0xdcc>
    258c:	e13ffc17 	ldw	r4,-16(fp)
    2590:	208004a0 	cmpeqi	r2,r4,18
    2594:	1003571e 	bne	r2,zero,32f4 <main+0x1b18>
    2598:	e0fffc17 	ldw	r3,-16(fp)
    259c:	18800a60 	cmpeqi	r2,r3,41
    25a0:	1003571e 	bne	r2,zero,3300 <main+0x1b24>
    25a4:	0007ac06 	br	4458 <main+0x2c7c>
    25a8:	e13ffc17 	ldw	r4,-16(fp)
    25ac:	208016a0 	cmpeqi	r2,r4,90
    25b0:	1000041e 	bne	r2,zero,25c4 <main+0xde8>
    25b4:	e0fffc17 	ldw	r3,-16(fp)
    25b8:	188019a0 	cmpeqi	r2,r3,102
    25bc:	1004ee1e 	bne	r2,zero,3978 <main+0x219c>
    25c0:	0007a506 	br	4458 <main+0x2c7c>
				//___________________________________________________________________________________
				//Enter Key...
				//___________________________________________________________________________________
				case  0x5a:
					if (username_input == 1)
    25c4:	e0bdfa17 	ldw	r2,-2072(fp)
    25c8:	10800058 	cmpnei	r2,r2,1
    25cc:	1000be1e 	bne	r2,zero,28c8 <main+0x10ec>
					{
						if (userChar == 0)
    25d0:	e0bdf917 	ldw	r2,-2076(fp)
    25d4:	1004c03a 	cmpne	r2,r2,zero
    25d8:	1000061e 	bne	r2,zero,25f4 <main+0xe18>
							put_vga_string("Username must be at least 1 character.", 0, 26);
    25dc:	01000074 	movhi	r4,1
    25e0:	211b6104 	addi	r4,r4,28036
    25e4:	000b883a 	mov	r5,zero
    25e8:	01800684 	movi	r6,26
    25ec:	00011980 	call	1198 <put_vga_string>
    25f0:	003d4006 	br	1af4 <main+0x318>
						else
						{
							username[userChar++] = 0; // Terminate the string
    25f4:	e0fdf917 	ldw	r3,-2076(fp)
    25f8:	e0bfd844 	addi	r2,fp,-159
    25fc:	10c5883a 	add	r2,r2,r3
    2600:	10000005 	stb	zero,0(r2)
    2604:	e0bdf917 	ldw	r2,-2076(fp)
    2608:	10800044 	addi	r2,r2,1
    260c:	e0bdf915 	stw	r2,-2076(fp)
							for (i = 441; i < 480; i++)
    2610:	00806e44 	movi	r2,441
    2614:	e0be0315 	stw	r2,-2036(fp)
    2618:	00001606 	br	2674 <main+0xe98>
							{
								for (j = 26; j < 640; j++)
    261c:	00800684 	movi	r2,26
    2620:	e0be0215 	stw	r2,-2040(fp)
    2624:	00000d06 	br	265c <main+0xe80>
								{
									Vga_Clr_Pixel(VGA_0_BASE, j, i);
    2628:	e0be0317 	ldw	r2,-2036(fp)
    262c:	10c0a024 	muli	r3,r2,640
    2630:	e0be0217 	ldw	r2,-2040(fp)
    2634:	1885883a 	add	r2,r3,r2
    2638:	1085883a 	add	r2,r2,r2
    263c:	1085883a 	add	r2,r2,r2
    2640:	1007883a 	mov	r3,r2
    2644:	00802834 	movhi	r2,160
    2648:	1885883a 	add	r2,r3,r2
    264c:	10000035 	stwio	zero,0(r2)
						else
						{
							username[userChar++] = 0; // Terminate the string
							for (i = 441; i < 480; i++)
							{
								for (j = 26; j < 640; j++)
    2650:	e0be0217 	ldw	r2,-2040(fp)
    2654:	10800044 	addi	r2,r2,1
    2658:	e0be0215 	stw	r2,-2040(fp)
    265c:	e0be0217 	ldw	r2,-2040(fp)
    2660:	1080a010 	cmplti	r2,r2,640
    2664:	103ff01e 	bne	r2,zero,2628 <main+0xe4c>
						if (userChar == 0)
							put_vga_string("Username must be at least 1 character.", 0, 26);
						else
						{
							username[userChar++] = 0; // Terminate the string
							for (i = 441; i < 480; i++)
    2668:	e0be0317 	ldw	r2,-2036(fp)
    266c:	10800044 	addi	r2,r2,1
    2670:	e0be0315 	stw	r2,-2036(fp)
    2674:	e0be0317 	ldw	r2,-2036(fp)
    2678:	10807810 	cmplti	r2,r2,480
    267c:	103fe71e 	bne	r2,zero,261c <main+0xe40>
								for (j = 26; j < 640; j++)
								{
									Vga_Clr_Pixel(VGA_0_BASE, j, i);
								}
							}
							for (i = 411; i < 435; i++)
    2680:	008066c4 	movi	r2,411
    2684:	e0be0315 	stw	r2,-2036(fp)
    2688:	00001506 	br	26e0 <main+0xf04>
							{
								for (j = 0; j < 640; j++)
    268c:	e03e0215 	stw	zero,-2040(fp)
    2690:	00000d06 	br	26c8 <main+0xeec>
								{
									Vga_Clr_Pixel(VGA_0_BASE, j, i);
    2694:	e0be0317 	ldw	r2,-2036(fp)
    2698:	10c0a024 	muli	r3,r2,640
    269c:	e0be0217 	ldw	r2,-2040(fp)
    26a0:	1885883a 	add	r2,r3,r2
    26a4:	1085883a 	add	r2,r2,r2
    26a8:	1085883a 	add	r2,r2,r2
    26ac:	1007883a 	mov	r3,r2
    26b0:	00802834 	movhi	r2,160
    26b4:	1885883a 	add	r2,r3,r2
    26b8:	10000035 	stwio	zero,0(r2)
									Vga_Clr_Pixel(VGA_0_BASE, j, i);
								}
							}
							for (i = 411; i < 435; i++)
							{
								for (j = 0; j < 640; j++)
    26bc:	e0be0217 	ldw	r2,-2040(fp)
    26c0:	10800044 	addi	r2,r2,1
    26c4:	e0be0215 	stw	r2,-2040(fp)
    26c8:	e0be0217 	ldw	r2,-2040(fp)
    26cc:	1080a010 	cmplti	r2,r2,640
    26d0:	103ff01e 	bne	r2,zero,2694 <main+0xeb8>
								for (j = 26; j < 640; j++)
								{
									Vga_Clr_Pixel(VGA_0_BASE, j, i);
								}
							}
							for (i = 411; i < 435; i++)
    26d4:	e0be0317 	ldw	r2,-2036(fp)
    26d8:	10800044 	addi	r2,r2,1
    26dc:	e0be0315 	stw	r2,-2036(fp)
    26e0:	e0be0317 	ldw	r2,-2036(fp)
    26e4:	10806cd0 	cmplti	r2,r2,435
    26e8:	103fe81e 	bne	r2,zero,268c <main+0xeb0>
								for (j = 0; j < 640; j++)
								{
									Vga_Clr_Pixel(VGA_0_BASE, j, i);
								}
							}
							for(i = 0; i < 620; i++)
    26ec:	e03e0315 	stw	zero,-2036(fp)
    26f0:	00000d06 	br	2728 <main+0xf4c>
							{
								Vga_Set_Pixel(VGA_0_BASE, i, 25);
    26f4:	e0be0317 	ldw	r2,-2036(fp)
    26f8:	1085883a 	add	r2,r2,r2
    26fc:	1085883a 	add	r2,r2,r2
    2700:	1007883a 	mov	r3,r2
    2704:	00802874 	movhi	r2,161
    2708:	10be8004 	addi	r2,r2,-1536
    270c:	1885883a 	add	r2,r3,r2
    2710:	1007883a 	mov	r3,r2
    2714:	00800044 	movi	r2,1
    2718:	18800035 	stwio	r2,0(r3)
								for (j = 0; j < 640; j++)
								{
									Vga_Clr_Pixel(VGA_0_BASE, j, i);
								}
							}
							for(i = 0; i < 620; i++)
    271c:	e0be0317 	ldw	r2,-2036(fp)
    2720:	10800044 	addi	r2,r2,1
    2724:	e0be0315 	stw	r2,-2036(fp)
    2728:	e0be0317 	ldw	r2,-2036(fp)
    272c:	10809b10 	cmplti	r2,r2,620
    2730:	103ff01e 	bne	r2,zero,26f4 <main+0xf18>
							{
								Vga_Set_Pixel(VGA_0_BASE, i, 25);
							}
							put_vga_string("Username: ",0,0);
    2734:	01000074 	movhi	r4,1
    2738:	211b6b04 	addi	r4,r4,28076
    273c:	000b883a 	mov	r5,zero
    2740:	000d883a 	mov	r6,zero
    2744:	00011980 	call	1198 <put_vga_string>
							for (j = 0; j < userChar-1; j++)
    2748:	e03e0215 	stw	zero,-2040(fp)
    274c:	00000f06 	br	278c <main+0xfb0>
							{
								put_vga_char(username[j], j+10, 0);
    2750:	e0fe0217 	ldw	r3,-2040(fp)
    2754:	e0bfd844 	addi	r2,fp,-159
    2758:	10c5883a 	add	r2,r2,r3
    275c:	10800003 	ldbu	r2,0(r2)
    2760:	11003fcc 	andi	r4,r2,255
    2764:	2100201c 	xori	r4,r4,128
    2768:	213fe004 	addi	r4,r4,-128
    276c:	e0be0217 	ldw	r2,-2040(fp)
    2770:	10800284 	addi	r2,r2,10
    2774:	100b883a 	mov	r5,r2
    2778:	000d883a 	mov	r6,zero
    277c:	00010540 	call	1054 <put_vga_char>
							for(i = 0; i < 620; i++)
							{
								Vga_Set_Pixel(VGA_0_BASE, i, 25);
							}
							put_vga_string("Username: ",0,0);
							for (j = 0; j < userChar-1; j++)
    2780:	e0be0217 	ldw	r2,-2040(fp)
    2784:	10800044 	addi	r2,r2,1
    2788:	e0be0215 	stw	r2,-2040(fp)
    278c:	e0bdf917 	ldw	r2,-2076(fp)
    2790:	10ffffc4 	addi	r3,r2,-1
    2794:	e0be0217 	ldw	r2,-2040(fp)
    2798:	10ffed16 	blt	r2,r3,2750 <main+0xf74>
							{
								put_vga_char(username[j], j+10, 0);
							}
							put_vga_string("Enter your message here: ", 0, 28);
    279c:	01000074 	movhi	r4,1
    27a0:	211b6e04 	addi	r4,r4,28088
    27a4:	000b883a 	mov	r5,zero
    27a8:	01800704 	movi	r6,28
    27ac:	00011980 	call	1198 <put_vga_string>
							//
							for (j = cursor_y; j < cursor_y+16; j++)
    27b0:	e0bdf417 	ldw	r2,-2096(fp)
    27b4:	e0be0215 	stw	r2,-2040(fp)
    27b8:	00001806 	br	281c <main+0x1040>
							{
								for (i = cursor_x+1; i < cursor_x+8; i++)
    27bc:	e0bdf617 	ldw	r2,-2088(fp)
    27c0:	10800044 	addi	r2,r2,1
    27c4:	e0be0315 	stw	r2,-2036(fp)
    27c8:	00000d06 	br	2800 <main+0x1024>
									Vga_Clr_Pixel(VGA_0_BASE, i, j);
    27cc:	e0be0217 	ldw	r2,-2040(fp)
    27d0:	10c0a024 	muli	r3,r2,640
    27d4:	e0be0317 	ldw	r2,-2036(fp)
    27d8:	1885883a 	add	r2,r3,r2
    27dc:	1085883a 	add	r2,r2,r2
    27e0:	1085883a 	add	r2,r2,r2
    27e4:	1007883a 	mov	r3,r2
    27e8:	00802834 	movhi	r2,160
    27ec:	1885883a 	add	r2,r3,r2
    27f0:	10000035 	stwio	zero,0(r2)
							}
							put_vga_string("Enter your message here: ", 0, 28);
							//
							for (j = cursor_y; j < cursor_y+16; j++)
							{
								for (i = cursor_x+1; i < cursor_x+8; i++)
    27f4:	e0be0317 	ldw	r2,-2036(fp)
    27f8:	10800044 	addi	r2,r2,1
    27fc:	e0be0315 	stw	r2,-2036(fp)
    2800:	e0bdf617 	ldw	r2,-2088(fp)
    2804:	10c00204 	addi	r3,r2,8
    2808:	e0be0317 	ldw	r2,-2036(fp)
    280c:	10ffef16 	blt	r2,r3,27cc <main+0xff0>
							{
								put_vga_char(username[j], j+10, 0);
							}
							put_vga_string("Enter your message here: ", 0, 28);
							//
							for (j = cursor_y; j < cursor_y+16; j++)
    2810:	e0be0217 	ldw	r2,-2040(fp)
    2814:	10800044 	addi	r2,r2,1
    2818:	e0be0215 	stw	r2,-2040(fp)
    281c:	e0bdf417 	ldw	r2,-2096(fp)
    2820:	10c00404 	addi	r3,r2,16
    2824:	e0be0217 	ldw	r2,-2040(fp)
    2828:	10ffe416 	blt	r2,r3,27bc <main+0xfe0>
							{
								for (i = cursor_x+1; i < cursor_x+8; i++)
									Vga_Clr_Pixel(VGA_0_BASE, i, j);
							}
							cursor_x_char = 25;
    282c:	00800644 	movi	r2,25
    2830:	e0bdf515 	stw	r2,-2092(fp)
							cursor_y_char = 28;
    2834:	00800704 	movi	r2,28
    2838:	e0bdf315 	stw	r2,-2100(fp)
							cursor_x = (cursor_x_char*8)-1;
    283c:	e0bdf517 	ldw	r2,-2092(fp)
    2840:	100490fa 	slli	r2,r2,3
    2844:	10bfffc4 	addi	r2,r2,-1
    2848:	e0bdf615 	stw	r2,-2088(fp)
							cursor_y = cursor_y_char*16;
    284c:	e0bdf317 	ldw	r2,-2100(fp)
    2850:	1004913a 	slli	r2,r2,4
    2854:	e0bdf415 	stw	r2,-2096(fp)
							for (j = cursor_y; j < cursor_y+16; j++)
    2858:	e0bdf417 	ldw	r2,-2096(fp)
    285c:	e0be0215 	stw	r2,-2040(fp)
    2860:	00000f06 	br	28a0 <main+0x10c4>
							{
								Vga_Set_Pixel(VGA_0_BASE, cursor_x, j);
    2864:	e0be0217 	ldw	r2,-2040(fp)
    2868:	10c0a024 	muli	r3,r2,640
    286c:	e0bdf617 	ldw	r2,-2088(fp)
    2870:	1885883a 	add	r2,r3,r2
    2874:	1085883a 	add	r2,r2,r2
    2878:	1085883a 	add	r2,r2,r2
    287c:	1007883a 	mov	r3,r2
    2880:	00802834 	movhi	r2,160
    2884:	1885883a 	add	r2,r3,r2
    2888:	1007883a 	mov	r3,r2
    288c:	00800044 	movi	r2,1
    2890:	18800035 	stwio	r2,0(r3)
							}
							cursor_x_char = 25;
							cursor_y_char = 28;
							cursor_x = (cursor_x_char*8)-1;
							cursor_y = cursor_y_char*16;
							for (j = cursor_y; j < cursor_y+16; j++)
    2894:	e0be0217 	ldw	r2,-2040(fp)
    2898:	10800044 	addi	r2,r2,1
    289c:	e0be0215 	stw	r2,-2040(fp)
    28a0:	e0bdf417 	ldw	r2,-2096(fp)
    28a4:	10c00404 	addi	r3,r2,16
    28a8:	e0be0217 	ldw	r2,-2040(fp)
    28ac:	10ffed16 	blt	r2,r3,2864 <main+0x1088>
							{
								Vga_Set_Pixel(VGA_0_BASE, cursor_x, j);
							}
							//
							username_input = 0;
    28b0:	e03dfa15 	stw	zero,-2072(fp)
							MAX_MSG_LENGTH_USER = MAX_MSG_LENGTH - userChar + 1 - 2;
    28b4:	00801fc4 	movi	r2,127
    28b8:	e0fdf917 	ldw	r3,-2076(fp)
    28bc:	10c5c83a 	sub	r2,r2,r3
    28c0:	e0bdf815 	stw	r2,-2080(fp)
    28c4:	003c8b06 	br	1af4 <main+0x318>
					else
					{
						//___________________________________________________________________________________
						//Checksum Calculator... (checksum hole = transmit_buffer[25] & transmit_buffer[26]
						//___________________________________________________________________________________
						byte14 = transmit_buffer[14] << 8;
    28c8:	00800074 	movhi	r2,1
    28cc:	109f9604 	addi	r2,r2,32344
    28d0:	10800383 	ldbu	r2,14(r2)
    28d4:	10803fcc 	andi	r2,r2,255
    28d8:	1004923a 	slli	r2,r2,8
    28dc:	e0bdf015 	stw	r2,-2112(fp)
						byte15 = transmit_buffer[15];
    28e0:	00800074 	movhi	r2,1
    28e4:	109f9604 	addi	r2,r2,32344
    28e8:	108003c3 	ldbu	r2,15(r2)
    28ec:	10803fcc 	andi	r2,r2,255
    28f0:	e0bdef15 	stw	r2,-2116(fp)
						byte16 = transmit_buffer[16] << 8;
    28f4:	00800074 	movhi	r2,1
    28f8:	109f9604 	addi	r2,r2,32344
    28fc:	10800403 	ldbu	r2,16(r2)
    2900:	10803fcc 	andi	r2,r2,255
    2904:	1004923a 	slli	r2,r2,8
    2908:	e0bdee15 	stw	r2,-2120(fp)
						byte17 = transmit_buffer[17];
    290c:	00800074 	movhi	r2,1
    2910:	109f9604 	addi	r2,r2,32344
    2914:	10800443 	ldbu	r2,17(r2)
    2918:	10803fcc 	andi	r2,r2,255
    291c:	e0bded15 	stw	r2,-2124(fp)
						byte18 = transmit_buffer[18] << 8;
    2920:	00800074 	movhi	r2,1
    2924:	109f9604 	addi	r2,r2,32344
    2928:	10800483 	ldbu	r2,18(r2)
    292c:	10803fcc 	andi	r2,r2,255
    2930:	1004923a 	slli	r2,r2,8
    2934:	e0bdec15 	stw	r2,-2128(fp)
						byte19 = transmit_buffer[19];
    2938:	00800074 	movhi	r2,1
    293c:	109f9604 	addi	r2,r2,32344
    2940:	108004c3 	ldbu	r2,19(r2)
    2944:	10803fcc 	andi	r2,r2,255
    2948:	e0bdeb15 	stw	r2,-2132(fp)
						byte20 = transmit_buffer[20] << 8;
    294c:	00800074 	movhi	r2,1
    2950:	109f9604 	addi	r2,r2,32344
    2954:	10800503 	ldbu	r2,20(r2)
    2958:	10803fcc 	andi	r2,r2,255
    295c:	1004923a 	slli	r2,r2,8
    2960:	e0bdea15 	stw	r2,-2136(fp)
						byte21 = transmit_buffer[21];
    2964:	00800074 	movhi	r2,1
    2968:	109f9604 	addi	r2,r2,32344
    296c:	10800543 	ldbu	r2,21(r2)
    2970:	10803fcc 	andi	r2,r2,255
    2974:	e0bde915 	stw	r2,-2140(fp)
						byte22 = transmit_buffer[22] << 8;
    2978:	00800074 	movhi	r2,1
    297c:	109f9604 	addi	r2,r2,32344
    2980:	10800583 	ldbu	r2,22(r2)
    2984:	10803fcc 	andi	r2,r2,255
    2988:	1004923a 	slli	r2,r2,8
    298c:	e0bde815 	stw	r2,-2144(fp)
						byte23 = transmit_buffer[23];
    2990:	00800074 	movhi	r2,1
    2994:	109f9604 	addi	r2,r2,32344
    2998:	108005c3 	ldbu	r2,23(r2)
    299c:	10803fcc 	andi	r2,r2,255
    29a0:	e0bde715 	stw	r2,-2148(fp)
						byte26 = transmit_buffer[26] << 8;
    29a4:	00800074 	movhi	r2,1
    29a8:	109f9604 	addi	r2,r2,32344
    29ac:	10800683 	ldbu	r2,26(r2)
    29b0:	10803fcc 	andi	r2,r2,255
    29b4:	1004923a 	slli	r2,r2,8
    29b8:	e0bde415 	stw	r2,-2160(fp)
						byte27 = transmit_buffer[27];
    29bc:	00800074 	movhi	r2,1
    29c0:	109f9604 	addi	r2,r2,32344
    29c4:	108006c3 	ldbu	r2,27(r2)
    29c8:	10803fcc 	andi	r2,r2,255
    29cc:	e0bde315 	stw	r2,-2164(fp)
						byte28 = transmit_buffer[28] << 8;
    29d0:	00800074 	movhi	r2,1
    29d4:	109f9604 	addi	r2,r2,32344
    29d8:	10800703 	ldbu	r2,28(r2)
    29dc:	10803fcc 	andi	r2,r2,255
    29e0:	1004923a 	slli	r2,r2,8
    29e4:	e0bde215 	stw	r2,-2168(fp)
						byte29 = transmit_buffer[29];
    29e8:	00800074 	movhi	r2,1
    29ec:	109f9604 	addi	r2,r2,32344
    29f0:	10800743 	ldbu	r2,29(r2)
    29f4:	10803fcc 	andi	r2,r2,255
    29f8:	e0bde115 	stw	r2,-2172(fp)
						byte30 = transmit_buffer[30] << 8;
    29fc:	00800074 	movhi	r2,1
    2a00:	109f9604 	addi	r2,r2,32344
    2a04:	10800783 	ldbu	r2,30(r2)
    2a08:	10803fcc 	andi	r2,r2,255
    2a0c:	1004923a 	slli	r2,r2,8
    2a10:	e0bde015 	stw	r2,-2176(fp)
						byte31 = transmit_buffer[31];
    2a14:	00800074 	movhi	r2,1
    2a18:	109f9604 	addi	r2,r2,32344
    2a1c:	108007c3 	ldbu	r2,31(r2)
    2a20:	10803fcc 	andi	r2,r2,255
    2a24:	e0bddf15 	stw	r2,-2180(fp)
						byte32 = transmit_buffer[32] << 8;
    2a28:	00800074 	movhi	r2,1
    2a2c:	109f9604 	addi	r2,r2,32344
    2a30:	10800803 	ldbu	r2,32(r2)
    2a34:	10803fcc 	andi	r2,r2,255
    2a38:	1004923a 	slli	r2,r2,8
    2a3c:	e0bdde15 	stw	r2,-2184(fp)
						byte33 = transmit_buffer[33];
    2a40:	00800074 	movhi	r2,1
    2a44:	109f9604 	addi	r2,r2,32344
    2a48:	10800843 	ldbu	r2,33(r2)
    2a4c:	10803fcc 	andi	r2,r2,255
    2a50:	e0bddd15 	stw	r2,-2188(fp)

						ip_header0 = byte14 + byte15;
    2a54:	e0fdf017 	ldw	r3,-2112(fp)
    2a58:	e0bdef17 	ldw	r2,-2116(fp)
    2a5c:	1885883a 	add	r2,r3,r2
    2a60:	e0bddc15 	stw	r2,-2192(fp)
						ip_header1 = byte16 + byte17;
    2a64:	e0fdee17 	ldw	r3,-2120(fp)
    2a68:	e0bded17 	ldw	r2,-2124(fp)
    2a6c:	1885883a 	add	r2,r3,r2
    2a70:	e0bddb15 	stw	r2,-2196(fp)
						ip_header2 = byte18 + byte19;
    2a74:	e0fdec17 	ldw	r3,-2128(fp)
    2a78:	e0bdeb17 	ldw	r2,-2132(fp)
    2a7c:	1885883a 	add	r2,r3,r2
    2a80:	e0bdda15 	stw	r2,-2200(fp)
						ip_header3 = byte20 + byte21;
    2a84:	e0fdea17 	ldw	r3,-2136(fp)
    2a88:	e0bde917 	ldw	r2,-2140(fp)
    2a8c:	1885883a 	add	r2,r3,r2
    2a90:	e0bdd915 	stw	r2,-2204(fp)
						ip_header4 = byte22 + byte23;
    2a94:	e0fde817 	ldw	r3,-2144(fp)
    2a98:	e0bde717 	ldw	r2,-2148(fp)
    2a9c:	1885883a 	add	r2,r3,r2
    2aa0:	e0bdd815 	stw	r2,-2208(fp)
						ip_header6 = byte26 + byte27;
    2aa4:	e0fde417 	ldw	r3,-2160(fp)
    2aa8:	e0bde317 	ldw	r2,-2164(fp)
    2aac:	1885883a 	add	r2,r3,r2
    2ab0:	e0bdd615 	stw	r2,-2216(fp)
						ip_header7 = byte28 + byte29;
    2ab4:	e0fde217 	ldw	r3,-2168(fp)
    2ab8:	e0bde117 	ldw	r2,-2172(fp)
    2abc:	1885883a 	add	r2,r3,r2
    2ac0:	e0bdd515 	stw	r2,-2220(fp)
						ip_header8 = byte30 + byte31;
    2ac4:	e0fde017 	ldw	r3,-2176(fp)
    2ac8:	e0bddf17 	ldw	r2,-2180(fp)
    2acc:	1885883a 	add	r2,r3,r2
    2ad0:	e0bdd415 	stw	r2,-2224(fp)
						ip_header9 = byte32 + byte33;
    2ad4:	e0fdde17 	ldw	r3,-2184(fp)
    2ad8:	e0bddd17 	ldw	r2,-2188(fp)
    2adc:	1885883a 	add	r2,r3,r2
    2ae0:	e0bdd315 	stw	r2,-2228(fp)

						crc_twos = ip_header0+ip_header1+ip_header2+ip_header3+ip_header4+ip_header6+ip_header7+ip_header8+ip_header9;
    2ae4:	e0fddc17 	ldw	r3,-2192(fp)
    2ae8:	e0bddb17 	ldw	r2,-2196(fp)
    2aec:	1887883a 	add	r3,r3,r2
    2af0:	e0bdda17 	ldw	r2,-2200(fp)
    2af4:	1887883a 	add	r3,r3,r2
    2af8:	e0bdd917 	ldw	r2,-2204(fp)
    2afc:	1887883a 	add	r3,r3,r2
    2b00:	e0bdd817 	ldw	r2,-2208(fp)
    2b04:	1887883a 	add	r3,r3,r2
    2b08:	e0bdd617 	ldw	r2,-2216(fp)
    2b0c:	1887883a 	add	r3,r3,r2
    2b10:	e0bdd517 	ldw	r2,-2220(fp)
    2b14:	1887883a 	add	r3,r3,r2
    2b18:	e0bdd417 	ldw	r2,-2224(fp)
    2b1c:	1887883a 	add	r3,r3,r2
    2b20:	e0bdd317 	ldw	r2,-2228(fp)
    2b24:	1885883a 	add	r2,r3,r2
    2b28:	e0bdd215 	stw	r2,-2232(fp)
						printf("\n %hx twos: ", crc_twos);
    2b2c:	01000074 	movhi	r4,1
    2b30:	211ae004 	addi	r4,r4,27520
    2b34:	e17dd217 	ldw	r5,-2232(fp)
    2b38:	00050f40 	call	50f4 <printf>
						crc_carry = crc_twos >> 16;
    2b3c:	e0bdd217 	ldw	r2,-2232(fp)
    2b40:	1005d43a 	srai	r2,r2,16
    2b44:	e0bdd115 	stw	r2,-2236(fp)
						printf("\n %hx carry: ", crc_carry);
    2b48:	01000074 	movhi	r4,1
    2b4c:	211ae404 	addi	r4,r4,27536
    2b50:	e17dd117 	ldw	r5,-2236(fp)
    2b54:	00050f40 	call	50f4 <printf>
						crc_ones = crc_twos + crc_carry;
    2b58:	e0fdd217 	ldw	r3,-2232(fp)
    2b5c:	e0bdd117 	ldw	r2,-2236(fp)
    2b60:	1885883a 	add	r2,r3,r2
    2b64:	e0bdd015 	stw	r2,-2240(fp)
						printf("\n ones: %hx", crc_ones);
    2b68:	01000074 	movhi	r4,1
    2b6c:	211ae804 	addi	r4,r4,27552
    2b70:	e17dd017 	ldw	r5,-2240(fp)
    2b74:	00050f40 	call	50f4 <printf>
//						checksum = ~crc_ones;
						checksum = (crc_ones ^ 0xFFFF); // invert bits
    2b78:	e0bdd017 	ldw	r2,-2240(fp)
    2b7c:	10bfffdc 	xori	r2,r2,65535
    2b80:	e0bdcf15 	stw	r2,-2244(fp)
						printf("\n %hx checksum: ", checksum);
    2b84:	01000074 	movhi	r4,1
    2b88:	211aeb04 	addi	r4,r4,27564
    2b8c:	e17dcf17 	ldw	r5,-2244(fp)
    2b90:	00050f40 	call	50f4 <printf>

						transmit_buffer[24] = checksum >> 8;
    2b94:	e0bdcf17 	ldw	r2,-2244(fp)
    2b98:	1004d23a 	srli	r2,r2,8
    2b9c:	1007883a 	mov	r3,r2
    2ba0:	00800074 	movhi	r2,1
    2ba4:	109f9604 	addi	r2,r2,32344
    2ba8:	10c00605 	stb	r3,24(r2)
						transmit_buffer[25] = checksum;
    2bac:	e0bdcf17 	ldw	r2,-2244(fp)
    2bb0:	1007883a 	mov	r3,r2
    2bb4:	00800074 	movhi	r2,1
    2bb8:	109f9604 	addi	r2,r2,32344
    2bbc:	10c00645 	stb	r3,25(r2)
						printf("\n %hx checksum_stored: ", transmit_buffer[24]);
    2bc0:	00800074 	movhi	r2,1
    2bc4:	109f9604 	addi	r2,r2,32344
    2bc8:	10800603 	ldbu	r2,24(r2)
    2bcc:	11403fcc 	andi	r5,r2,255
    2bd0:	01000074 	movhi	r4,1
    2bd4:	211b7504 	addi	r4,r4,28116
    2bd8:	00050f40 	call	50f4 <printf>
						printf("\n %hx checksum_stored: ", transmit_buffer[25]);
    2bdc:	00800074 	movhi	r2,1
    2be0:	109f9604 	addi	r2,r2,32344
    2be4:	10800643 	ldbu	r2,25(r2)
    2be8:	11403fcc 	andi	r5,r2,255
    2bec:	01000074 	movhi	r4,1
    2bf0:	211b7504 	addi	r4,r4,28116
    2bf4:	00050f40 	call	50f4 <printf>



						for (i = 0; i < userChar-1; i++)
    2bf8:	e03e0315 	stw	zero,-2036(fp)
    2bfc:	00000b06 	br	2c2c <main+0x1450>
						{
							PAYLOAD_TEMP[i] = username[i];
    2c00:	e13e0317 	ldw	r4,-2036(fp)
    2c04:	e0fe0317 	ldw	r3,-2036(fp)
    2c08:	e0bfd844 	addi	r2,fp,-159
    2c0c:	10c5883a 	add	r2,r2,r3
    2c10:	10c00003 	ldbu	r3,0(r2)
    2c14:	e0bfdac4 	addi	r2,fp,-149
    2c18:	1105883a 	add	r2,r2,r4
    2c1c:	10c00005 	stb	r3,0(r2)
						printf("\n %hx checksum_stored: ", transmit_buffer[24]);
						printf("\n %hx checksum_stored: ", transmit_buffer[25]);



						for (i = 0; i < userChar-1; i++)
    2c20:	e0be0317 	ldw	r2,-2036(fp)
    2c24:	10800044 	addi	r2,r2,1
    2c28:	e0be0315 	stw	r2,-2036(fp)
    2c2c:	e0bdf917 	ldw	r2,-2076(fp)
    2c30:	10ffffc4 	addi	r3,r2,-1
    2c34:	e0be0317 	ldw	r2,-2036(fp)
    2c38:	10fff116 	blt	r2,r3,2c00 <main+0x1424>
						{
							PAYLOAD_TEMP[i] = username[i];
						}
						PAYLOAD_TEMP[userChar-1] = ':';
    2c3c:	e0bdf917 	ldw	r2,-2076(fp)
    2c40:	10ffffc4 	addi	r3,r2,-1
    2c44:	e0bfdac4 	addi	r2,fp,-149
    2c48:	10c7883a 	add	r3,r2,r3
    2c4c:	00800e84 	movi	r2,58
    2c50:	18800005 	stb	r2,0(r3)
						PAYLOAD_TEMP[userChar] = ' ';
    2c54:	e0fdf917 	ldw	r3,-2076(fp)
    2c58:	e0bfdac4 	addi	r2,fp,-149
    2c5c:	10c7883a 	add	r3,r2,r3
    2c60:	00800804 	movi	r2,32
    2c64:	18800005 	stb	r2,0(r3)
						for (i = 0; i < curMsgChar; i++)
    2c68:	e03e0315 	stw	zero,-2036(fp)
    2c6c:	00001006 	br	2cb0 <main+0x14d4>
						{
							PAYLOAD_TEMP[i+userChar+1] = UDP_PACKET_PAYLOAD[i];
    2c70:	e0fe0317 	ldw	r3,-2036(fp)
    2c74:	e0bdf917 	ldw	r2,-2076(fp)
    2c78:	1885883a 	add	r2,r3,r2
    2c7c:	11000044 	addi	r4,r2,1
    2c80:	e0fe0317 	ldw	r3,-2036(fp)
    2c84:	00800074 	movhi	r2,1
    2c88:	109fa084 	addi	r2,r2,32386
    2c8c:	1885883a 	add	r2,r3,r2
    2c90:	10800003 	ldbu	r2,0(r2)
    2c94:	1007883a 	mov	r3,r2
    2c98:	e0bfdac4 	addi	r2,fp,-149
    2c9c:	1105883a 	add	r2,r2,r4
    2ca0:	10c00005 	stb	r3,0(r2)
						{
							PAYLOAD_TEMP[i] = username[i];
						}
						PAYLOAD_TEMP[userChar-1] = ':';
						PAYLOAD_TEMP[userChar] = ' ';
						for (i = 0; i < curMsgChar; i++)
    2ca4:	e0be0317 	ldw	r2,-2036(fp)
    2ca8:	10800044 	addi	r2,r2,1
    2cac:	e0be0315 	stw	r2,-2036(fp)
    2cb0:	e0fe0317 	ldw	r3,-2036(fp)
    2cb4:	e0be0017 	ldw	r2,-2048(fp)
    2cb8:	18bfed16 	blt	r3,r2,2c70 <main+0x1494>
						{
							PAYLOAD_TEMP[i+userChar+1] = UDP_PACKET_PAYLOAD[i];
						}
						for (i = 0; i < userChar+curMsgChar+4; i++)
    2cbc:	e03e0315 	stw	zero,-2036(fp)
    2cc0:	00000c06 	br	2cf4 <main+0x1518>
						{
							UDP_PACKET_PAYLOAD[i] = PAYLOAD_TEMP[i];
    2cc4:	e0fe0317 	ldw	r3,-2036(fp)
    2cc8:	00800074 	movhi	r2,1
    2ccc:	109fa084 	addi	r2,r2,32386
    2cd0:	1889883a 	add	r4,r3,r2
    2cd4:	e0fe0317 	ldw	r3,-2036(fp)
    2cd8:	e0bfdac4 	addi	r2,fp,-149
    2cdc:	10c5883a 	add	r2,r2,r3
    2ce0:	10800003 	ldbu	r2,0(r2)
    2ce4:	20800005 	stb	r2,0(r4)
						PAYLOAD_TEMP[userChar] = ' ';
						for (i = 0; i < curMsgChar; i++)
						{
							PAYLOAD_TEMP[i+userChar+1] = UDP_PACKET_PAYLOAD[i];
						}
						for (i = 0; i < userChar+curMsgChar+4; i++)
    2ce8:	e0be0317 	ldw	r2,-2036(fp)
    2cec:	10800044 	addi	r2,r2,1
    2cf0:	e0be0315 	stw	r2,-2036(fp)
    2cf4:	e0fdf917 	ldw	r3,-2076(fp)
    2cf8:	e0be0017 	ldw	r2,-2048(fp)
    2cfc:	1885883a 	add	r2,r3,r2
    2d00:	10c00104 	addi	r3,r2,4
    2d04:	e0be0317 	ldw	r2,-2036(fp)
    2d08:	10ffee16 	blt	r2,r3,2cc4 <main+0x14e8>
						{
							UDP_PACKET_PAYLOAD[i] = PAYLOAD_TEMP[i];
						}
						curMsgChar = curMsgChar + userChar + 1;
    2d0c:	e0fe0017 	ldw	r3,-2048(fp)
    2d10:	e0bdf917 	ldw	r2,-2076(fp)
    2d14:	1885883a 	add	r2,r3,r2
    2d18:	10800044 	addi	r2,r2,1
    2d1c:	e0be0015 	stw	r2,-2048(fp)
						UDP_PACKET_PAYLOAD[curMsgChar++] = 0; // Terminate the string
    2d20:	e0fe0017 	ldw	r3,-2048(fp)
    2d24:	00800074 	movhi	r2,1
    2d28:	109fa084 	addi	r2,r2,32386
    2d2c:	1885883a 	add	r2,r3,r2
    2d30:	10000005 	stb	zero,0(r2)
    2d34:	e0be0017 	ldw	r2,-2048(fp)
    2d38:	10800044 	addi	r2,r2,1
    2d3c:	e0be0015 	stw	r2,-2048(fp)
						packet_length = UDP_PACKET_PAYLOAD_OFFSET + curMsgChar + userChar;
    2d40:	e0fe0017 	ldw	r3,-2048(fp)
    2d44:	e0bdf917 	ldw	r2,-2076(fp)
    2d48:	1885883a 	add	r2,r3,r2
    2d4c:	10800a84 	addi	r2,r2,42
    2d50:	e0bdfc15 	stw	r2,-2064(fp)
						transmit_buffer[UDP_PACKET_LENGTH_OFFSET] = packet_length >> 8;
    2d54:	e0bdfc17 	ldw	r2,-2064(fp)
    2d58:	1004d23a 	srli	r2,r2,8
    2d5c:	1007883a 	mov	r3,r2
    2d60:	00800074 	movhi	r2,1
    2d64:	109f9604 	addi	r2,r2,32344
    2d68:	10c00985 	stb	r3,38(r2)
						transmit_buffer[UDP_PACKET_LENGTH_OFFSET + 1] = packet_length & 0xff;
    2d6c:	e0bdfc17 	ldw	r2,-2064(fp)
    2d70:	1007883a 	mov	r3,r2
    2d74:	00800074 	movhi	r2,1
    2d78:	109f9604 	addi	r2,r2,32344
    2d7c:	10c009c5 	stb	r3,39(r2)
						for (i = 441; i < 480; i++)
    2d80:	00806e44 	movi	r2,441
    2d84:	e0be0315 	stw	r2,-2036(fp)
    2d88:	00001506 	br	2de0 <main+0x1604>
						{
							for (j = 0; j < 640; j++)
    2d8c:	e03e0215 	stw	zero,-2040(fp)
    2d90:	00000d06 	br	2dc8 <main+0x15ec>
							{
								Vga_Clr_Pixel(VGA_0_BASE, j, i);
    2d94:	e0be0317 	ldw	r2,-2036(fp)
    2d98:	10c0a024 	muli	r3,r2,640
    2d9c:	e0be0217 	ldw	r2,-2040(fp)
    2da0:	1885883a 	add	r2,r3,r2
    2da4:	1085883a 	add	r2,r2,r2
    2da8:	1085883a 	add	r2,r2,r2
    2dac:	1007883a 	mov	r3,r2
    2db0:	00802834 	movhi	r2,160
    2db4:	1885883a 	add	r2,r3,r2
    2db8:	10000035 	stwio	zero,0(r2)
						packet_length = UDP_PACKET_PAYLOAD_OFFSET + curMsgChar + userChar;
						transmit_buffer[UDP_PACKET_LENGTH_OFFSET] = packet_length >> 8;
						transmit_buffer[UDP_PACKET_LENGTH_OFFSET + 1] = packet_length & 0xff;
						for (i = 441; i < 480; i++)
						{
							for (j = 0; j < 640; j++)
    2dbc:	e0be0217 	ldw	r2,-2040(fp)
    2dc0:	10800044 	addi	r2,r2,1
    2dc4:	e0be0215 	stw	r2,-2040(fp)
    2dc8:	e0be0217 	ldw	r2,-2040(fp)
    2dcc:	1080a010 	cmplti	r2,r2,640
    2dd0:	103ff01e 	bne	r2,zero,2d94 <main+0x15b8>
						curMsgChar = curMsgChar + userChar + 1;
						UDP_PACKET_PAYLOAD[curMsgChar++] = 0; // Terminate the string
						packet_length = UDP_PACKET_PAYLOAD_OFFSET + curMsgChar + userChar;
						transmit_buffer[UDP_PACKET_LENGTH_OFFSET] = packet_length >> 8;
						transmit_buffer[UDP_PACKET_LENGTH_OFFSET + 1] = packet_length & 0xff;
						for (i = 441; i < 480; i++)
    2dd4:	e0be0317 	ldw	r2,-2036(fp)
    2dd8:	10800044 	addi	r2,r2,1
    2ddc:	e0be0315 	stw	r2,-2036(fp)
    2de0:	e0be0317 	ldw	r2,-2036(fp)
    2de4:	10807810 	cmplti	r2,r2,480
    2de8:	103fe81e 	bne	r2,zero,2d8c <main+0x15b0>
							for (j = 0; j < 640; j++)
							{
								Vga_Clr_Pixel(VGA_0_BASE, j, i);
							}
						}
						curLineChar = 25;
    2dec:	00800644 	movi	r2,25
    2df0:	e0bdff15 	stw	r2,-2052(fp)
						curMsgLine = 28;
    2df4:	00800704 	movi	r2,28
    2df8:	e0bdfe15 	stw	r2,-2056(fp)
						put_vga_string("Enter your message here: ", 0, 28);
    2dfc:	01000074 	movhi	r4,1
    2e00:	211b6e04 	addi	r4,r4,28088
    2e04:	000b883a 	mov	r5,zero
    2e08:	01800704 	movi	r6,28
    2e0c:	00011980 	call	1198 <put_vga_string>
						for (j = cursor_y; j < cursor_y+16; j++)
    2e10:	e0bdf417 	ldw	r2,-2096(fp)
    2e14:	e0be0215 	stw	r2,-2040(fp)
    2e18:	00001806 	br	2e7c <main+0x16a0>
						{
							for (i = cursor_x+1; i < cursor_x+8; i++) Vga_Clr_Pixel(VGA_0_BASE, i, j);
    2e1c:	e0bdf617 	ldw	r2,-2088(fp)
    2e20:	10800044 	addi	r2,r2,1
    2e24:	e0be0315 	stw	r2,-2036(fp)
    2e28:	00000d06 	br	2e60 <main+0x1684>
    2e2c:	e0be0217 	ldw	r2,-2040(fp)
    2e30:	10c0a024 	muli	r3,r2,640
    2e34:	e0be0317 	ldw	r2,-2036(fp)
    2e38:	1885883a 	add	r2,r3,r2
    2e3c:	1085883a 	add	r2,r2,r2
    2e40:	1085883a 	add	r2,r2,r2
    2e44:	1007883a 	mov	r3,r2
    2e48:	00802834 	movhi	r2,160
    2e4c:	1885883a 	add	r2,r3,r2
    2e50:	10000035 	stwio	zero,0(r2)
    2e54:	e0be0317 	ldw	r2,-2036(fp)
    2e58:	10800044 	addi	r2,r2,1
    2e5c:	e0be0315 	stw	r2,-2036(fp)
    2e60:	e0bdf617 	ldw	r2,-2088(fp)
    2e64:	10c00204 	addi	r3,r2,8
    2e68:	e0be0317 	ldw	r2,-2036(fp)
    2e6c:	10ffef16 	blt	r2,r3,2e2c <main+0x1650>
							}
						}
						curLineChar = 25;
						curMsgLine = 28;
						put_vga_string("Enter your message here: ", 0, 28);
						for (j = cursor_y; j < cursor_y+16; j++)
    2e70:	e0be0217 	ldw	r2,-2040(fp)
    2e74:	10800044 	addi	r2,r2,1
    2e78:	e0be0215 	stw	r2,-2040(fp)
    2e7c:	e0bdf417 	ldw	r2,-2096(fp)
    2e80:	10c00404 	addi	r3,r2,16
    2e84:	e0be0217 	ldw	r2,-2040(fp)
    2e88:	10ffe416 	blt	r2,r3,2e1c <main+0x1640>
						{
							for (i = cursor_x+1; i < cursor_x+8; i++) Vga_Clr_Pixel(VGA_0_BASE, i, j);
						}
						cursor_x_char = 25;
    2e8c:	00800644 	movi	r2,25
    2e90:	e0bdf515 	stw	r2,-2092(fp)
						cursor_y_char = 28;
    2e94:	00800704 	movi	r2,28
    2e98:	e0bdf315 	stw	r2,-2100(fp)
						cursor_x = (cursor_x_char*8)-1;
    2e9c:	e0bdf517 	ldw	r2,-2092(fp)
    2ea0:	100490fa 	slli	r2,r2,3
    2ea4:	10bfffc4 	addi	r2,r2,-1
    2ea8:	e0bdf615 	stw	r2,-2088(fp)
						cursor_y = cursor_y_char*16;
    2eac:	e0bdf317 	ldw	r2,-2100(fp)
    2eb0:	1004913a 	slli	r2,r2,4
    2eb4:	e0bdf415 	stw	r2,-2096(fp)
						for (j = cursor_y; j < cursor_y+16; j++)
    2eb8:	e0bdf417 	ldw	r2,-2096(fp)
    2ebc:	e0be0215 	stw	r2,-2040(fp)
    2ec0:	00000f06 	br	2f00 <main+0x1724>
						{
							Vga_Set_Pixel(VGA_0_BASE, cursor_x, j);
    2ec4:	e0be0217 	ldw	r2,-2040(fp)
    2ec8:	10c0a024 	muli	r3,r2,640
    2ecc:	e0bdf617 	ldw	r2,-2088(fp)
    2ed0:	1885883a 	add	r2,r3,r2
    2ed4:	1085883a 	add	r2,r2,r2
    2ed8:	1085883a 	add	r2,r2,r2
    2edc:	1007883a 	mov	r3,r2
    2ee0:	00802834 	movhi	r2,160
    2ee4:	1885883a 	add	r2,r3,r2
    2ee8:	1007883a 	mov	r3,r2
    2eec:	00800044 	movi	r2,1
    2ef0:	18800035 	stwio	r2,0(r3)
						}
						cursor_x_char = 25;
						cursor_y_char = 28;
						cursor_x = (cursor_x_char*8)-1;
						cursor_y = cursor_y_char*16;
						for (j = cursor_y; j < cursor_y+16; j++)
    2ef4:	e0be0217 	ldw	r2,-2040(fp)
    2ef8:	10800044 	addi	r2,r2,1
    2efc:	e0be0215 	stw	r2,-2040(fp)
    2f00:	e0bdf417 	ldw	r2,-2096(fp)
    2f04:	10c00404 	addi	r3,r2,16
    2f08:	e0be0217 	ldw	r2,-2040(fp)
    2f0c:	10ffed16 	blt	r2,r3,2ec4 <main+0x16e8>
							Vga_Set_Pixel(VGA_0_BASE, cursor_x, j);
						}
						//___________________________________________________________________________________
						//Archive & Display Message; Update Status...
						//___________________________________________________________________________________
						if (TransmitPacket(transmit_buffer, UDP_PACKET_PAYLOAD_OFFSET + curMsgChar + 1)==DMFE_SUCCESS && curMsgChar > userChar+2) {
    2f10:	e0be0017 	ldw	r2,-2048(fp)
    2f14:	10800ac4 	addi	r2,r2,43
    2f18:	100b883a 	mov	r5,r2
    2f1c:	01000074 	movhi	r4,1
    2f20:	211f9604 	addi	r4,r4,32344
    2f24:	00004f00 	call	4f0 <TransmitPacket>
    2f28:	1004c03a 	cmpne	r2,r2,zero
    2f2c:	1000991e 	bne	r2,zero,3194 <main+0x19b8>
    2f30:	e0bdf917 	ldw	r2,-2076(fp)
    2f34:	10c00084 	addi	r3,r2,2
    2f38:	e0be0017 	ldw	r2,-2048(fp)
    2f3c:	1880950e 	bge	r3,r2,3194 <main+0x19b8>
							if (curMsgChar < 81)
    2f40:	e0be0017 	ldw	r2,-2048(fp)
    2f44:	10801448 	cmpgei	r2,r2,81
    2f48:	10003c1e 	bne	r2,zero,303c <main+0x1860>
							{
								if (current_line == 25)
    2f4c:	e0bdfb17 	ldw	r2,-2068(fp)
    2f50:	10800658 	cmpnei	r2,r2,25
    2f54:	10001d1e 	bne	r2,zero,2fcc <main+0x17f0>
								{
									for (k = 26; k < 409; k++)
    2f58:	00800684 	movi	r2,26
    2f5c:	e0be0115 	stw	r2,-2044(fp)
    2f60:	00001506 	br	2fb8 <main+0x17dc>
									{
										for (j = 0; j < 640; j++)
    2f64:	e03e0215 	stw	zero,-2040(fp)
    2f68:	00000d06 	br	2fa0 <main+0x17c4>
										{
											Vga_Clr_Pixel(VGA_0_BASE, j, k);
    2f6c:	e0be0117 	ldw	r2,-2044(fp)
    2f70:	10c0a024 	muli	r3,r2,640
    2f74:	e0be0217 	ldw	r2,-2040(fp)
    2f78:	1885883a 	add	r2,r3,r2
    2f7c:	1085883a 	add	r2,r2,r2
    2f80:	1085883a 	add	r2,r2,r2
    2f84:	1007883a 	mov	r3,r2
    2f88:	00802834 	movhi	r2,160
    2f8c:	1885883a 	add	r2,r3,r2
    2f90:	10000035 	stwio	zero,0(r2)
							{
								if (current_line == 25)
								{
									for (k = 26; k < 409; k++)
									{
										for (j = 0; j < 640; j++)
    2f94:	e0be0217 	ldw	r2,-2040(fp)
    2f98:	10800044 	addi	r2,r2,1
    2f9c:	e0be0215 	stw	r2,-2040(fp)
    2fa0:	e0be0217 	ldw	r2,-2040(fp)
    2fa4:	1080a010 	cmplti	r2,r2,640
    2fa8:	103ff01e 	bne	r2,zero,2f6c <main+0x1790>
						if (TransmitPacket(transmit_buffer, UDP_PACKET_PAYLOAD_OFFSET + curMsgChar + 1)==DMFE_SUCCESS && curMsgChar > userChar+2) {
							if (curMsgChar < 81)
							{
								if (current_line == 25)
								{
									for (k = 26; k < 409; k++)
    2fac:	e0be0117 	ldw	r2,-2044(fp)
    2fb0:	10800044 	addi	r2,r2,1
    2fb4:	e0be0115 	stw	r2,-2044(fp)
    2fb8:	e0be0117 	ldw	r2,-2044(fp)
    2fbc:	10806650 	cmplti	r2,r2,409
    2fc0:	103fe81e 	bne	r2,zero,2f64 <main+0x1788>
										for (j = 0; j < 640; j++)
										{
											Vga_Clr_Pixel(VGA_0_BASE, j, k);
										}
									}
									current_line = 2;
    2fc4:	00800084 	movi	r2,2
    2fc8:	e0bdfb15 	stw	r2,-2068(fp)
								}
								for (j = 0; j < curMsgChar-1; j++)
    2fcc:	e03e0215 	stw	zero,-2040(fp)
    2fd0:	00000e06 	br	300c <main+0x1830>
								{
									put_vga_char(UDP_PACKET_PAYLOAD[j], j, current_line);
    2fd4:	e0fe0217 	ldw	r3,-2040(fp)
    2fd8:	00800074 	movhi	r2,1
    2fdc:	109fa084 	addi	r2,r2,32386
    2fe0:	1885883a 	add	r2,r3,r2
    2fe4:	10800003 	ldbu	r2,0(r2)
    2fe8:	11003fcc 	andi	r4,r2,255
    2fec:	2100201c 	xori	r4,r4,128
    2ff0:	213fe004 	addi	r4,r4,-128
    2ff4:	e17e0217 	ldw	r5,-2040(fp)
    2ff8:	e1bdfb17 	ldw	r6,-2068(fp)
    2ffc:	00010540 	call	1054 <put_vga_char>
											Vga_Clr_Pixel(VGA_0_BASE, j, k);
										}
									}
									current_line = 2;
								}
								for (j = 0; j < curMsgChar-1; j++)
    3000:	e0be0217 	ldw	r2,-2040(fp)
    3004:	10800044 	addi	r2,r2,1
    3008:	e0be0215 	stw	r2,-2040(fp)
    300c:	e0be0017 	ldw	r2,-2048(fp)
    3010:	10ffffc4 	addi	r3,r2,-1
    3014:	e0be0217 	ldw	r2,-2040(fp)
    3018:	10ffee16 	blt	r2,r3,2fd4 <main+0x17f8>
								{
									put_vga_char(UDP_PACKET_PAYLOAD[j], j, current_line);
								}
								put_vga_string("Message sent successfully.", 0, 26);
    301c:	01000074 	movhi	r4,1
    3020:	211b7b04 	addi	r4,r4,28140
    3024:	000b883a 	mov	r5,zero
    3028:	01800684 	movi	r6,26
    302c:	00011980 	call	1198 <put_vga_string>
								current_line++;
    3030:	e0bdfb17 	ldw	r2,-2068(fp)
    3034:	10800044 	addi	r2,r2,1
    3038:	e0bdfb15 	stw	r2,-2068(fp)
							}
							if (curMsgChar > 80)
    303c:	e0be0017 	ldw	r2,-2048(fp)
    3040:	10801450 	cmplti	r2,r2,81
    3044:	1000731e 	bne	r2,zero,3214 <main+0x1a38>
							{
								if (current_line == 24)
    3048:	e0bdfb17 	ldw	r2,-2068(fp)
    304c:	10800618 	cmpnei	r2,r2,24
    3050:	10001d1e 	bne	r2,zero,30c8 <main+0x18ec>
								{
									for (k = 26; k < 409; k++)
    3054:	00800684 	movi	r2,26
    3058:	e0be0115 	stw	r2,-2044(fp)
    305c:	00001506 	br	30b4 <main+0x18d8>
									{
										for (j = 0; j < 640; j++)
    3060:	e03e0215 	stw	zero,-2040(fp)
    3064:	00000d06 	br	309c <main+0x18c0>
										{
											Vga_Clr_Pixel(VGA_0_BASE, j, k);
    3068:	e0be0117 	ldw	r2,-2044(fp)
    306c:	10c0a024 	muli	r3,r2,640
    3070:	e0be0217 	ldw	r2,-2040(fp)
    3074:	1885883a 	add	r2,r3,r2
    3078:	1085883a 	add	r2,r2,r2
    307c:	1085883a 	add	r2,r2,r2
    3080:	1007883a 	mov	r3,r2
    3084:	00802834 	movhi	r2,160
    3088:	1885883a 	add	r2,r3,r2
    308c:	10000035 	stwio	zero,0(r2)
							{
								if (current_line == 24)
								{
									for (k = 26; k < 409; k++)
									{
										for (j = 0; j < 640; j++)
    3090:	e0be0217 	ldw	r2,-2040(fp)
    3094:	10800044 	addi	r2,r2,1
    3098:	e0be0215 	stw	r2,-2040(fp)
    309c:	e0be0217 	ldw	r2,-2040(fp)
    30a0:	1080a010 	cmplti	r2,r2,640
    30a4:	103ff01e 	bne	r2,zero,3068 <main+0x188c>
							}
							if (curMsgChar > 80)
							{
								if (current_line == 24)
								{
									for (k = 26; k < 409; k++)
    30a8:	e0be0117 	ldw	r2,-2044(fp)
    30ac:	10800044 	addi	r2,r2,1
    30b0:	e0be0115 	stw	r2,-2044(fp)
    30b4:	e0be0117 	ldw	r2,-2044(fp)
    30b8:	10806650 	cmplti	r2,r2,409
    30bc:	103fe81e 	bne	r2,zero,3060 <main+0x1884>
										for (j = 0; j < 640; j++)
										{
											Vga_Clr_Pixel(VGA_0_BASE, j, k);
										}
									}
									current_line = 2;
    30c0:	00800084 	movi	r2,2
    30c4:	e0bdfb15 	stw	r2,-2068(fp)
								}
								for (j = 0; j < 79; j++)
    30c8:	e03e0215 	stw	zero,-2040(fp)
    30cc:	00000e06 	br	3108 <main+0x192c>
								{
									put_vga_char(UDP_PACKET_PAYLOAD[j], j, current_line);
    30d0:	e0fe0217 	ldw	r3,-2040(fp)
    30d4:	00800074 	movhi	r2,1
    30d8:	109fa084 	addi	r2,r2,32386
    30dc:	1885883a 	add	r2,r3,r2
    30e0:	10800003 	ldbu	r2,0(r2)
    30e4:	11003fcc 	andi	r4,r2,255
    30e8:	2100201c 	xori	r4,r4,128
    30ec:	213fe004 	addi	r4,r4,-128
    30f0:	e17e0217 	ldw	r5,-2040(fp)
    30f4:	e1bdfb17 	ldw	r6,-2068(fp)
    30f8:	00010540 	call	1054 <put_vga_char>
											Vga_Clr_Pixel(VGA_0_BASE, j, k);
										}
									}
									current_line = 2;
								}
								for (j = 0; j < 79; j++)
    30fc:	e0be0217 	ldw	r2,-2040(fp)
    3100:	10800044 	addi	r2,r2,1
    3104:	e0be0215 	stw	r2,-2040(fp)
    3108:	e0be0217 	ldw	r2,-2040(fp)
    310c:	108013d0 	cmplti	r2,r2,79
    3110:	103fef1e 	bne	r2,zero,30d0 <main+0x18f4>
								{
									put_vga_char(UDP_PACKET_PAYLOAD[j], j, current_line);
								}
								current_line++;
    3114:	e0bdfb17 	ldw	r2,-2068(fp)
    3118:	10800044 	addi	r2,r2,1
    311c:	e0bdfb15 	stw	r2,-2068(fp)
								for (j = 0; j < curMsgChar-80; j++)
    3120:	e03e0215 	stw	zero,-2040(fp)
    3124:	00000e06 	br	3160 <main+0x1984>
								{
									put_vga_char(UDP_PACKET_PAYLOAD[j+79], j, current_line);
    3128:	e0fe0217 	ldw	r3,-2040(fp)
    312c:	00800074 	movhi	r2,1
    3130:	109fb444 	addi	r2,r2,32465
    3134:	1885883a 	add	r2,r3,r2
    3138:	10800003 	ldbu	r2,0(r2)
    313c:	11003fcc 	andi	r4,r2,255
    3140:	2100201c 	xori	r4,r4,128
    3144:	213fe004 	addi	r4,r4,-128
    3148:	e17e0217 	ldw	r5,-2040(fp)
    314c:	e1bdfb17 	ldw	r6,-2068(fp)
    3150:	00010540 	call	1054 <put_vga_char>
								for (j = 0; j < 79; j++)
								{
									put_vga_char(UDP_PACKET_PAYLOAD[j], j, current_line);
								}
								current_line++;
								for (j = 0; j < curMsgChar-80; j++)
    3154:	e0be0217 	ldw	r2,-2040(fp)
    3158:	10800044 	addi	r2,r2,1
    315c:	e0be0215 	stw	r2,-2040(fp)
    3160:	e0be0017 	ldw	r2,-2048(fp)
    3164:	10ffec04 	addi	r3,r2,-80
    3168:	e0be0217 	ldw	r2,-2040(fp)
    316c:	10ffee16 	blt	r2,r3,3128 <main+0x194c>
								{
									put_vga_char(UDP_PACKET_PAYLOAD[j+79], j, current_line);
								}
								put_vga_string("Message sent successfully.", 0, 26);
    3170:	01000074 	movhi	r4,1
    3174:	211b7b04 	addi	r4,r4,28140
    3178:	000b883a 	mov	r5,zero
    317c:	01800684 	movi	r6,26
    3180:	00011980 	call	1198 <put_vga_string>
								current_line++;
    3184:	e0bdfb17 	ldw	r2,-2068(fp)
    3188:	10800044 	addi	r2,r2,1
    318c:	e0bdfb15 	stw	r2,-2068(fp)
							Vga_Set_Pixel(VGA_0_BASE, cursor_x, j);
						}
						//___________________________________________________________________________________
						//Archive & Display Message; Update Status...
						//___________________________________________________________________________________
						if (TransmitPacket(transmit_buffer, UDP_PACKET_PAYLOAD_OFFSET + curMsgChar + 1)==DMFE_SUCCESS && curMsgChar > userChar+2) {
    3190:	00002006 	br	3214 <main+0x1a38>
								put_vga_string("Message sent successfully.", 0, 26);
								current_line++;
							}

						} else {
							for (i = 411; i < 435; i++)
    3194:	008066c4 	movi	r2,411
    3198:	e0be0315 	stw	r2,-2036(fp)
    319c:	00001506 	br	31f4 <main+0x1a18>
							{
								for (j = 0; j < 640; j++)
    31a0:	e03e0215 	stw	zero,-2040(fp)
    31a4:	00000d06 	br	31dc <main+0x1a00>
								{
									Vga_Clr_Pixel(VGA_0_BASE, j, i);
    31a8:	e0be0317 	ldw	r2,-2036(fp)
    31ac:	10c0a024 	muli	r3,r2,640
    31b0:	e0be0217 	ldw	r2,-2040(fp)
    31b4:	1885883a 	add	r2,r3,r2
    31b8:	1085883a 	add	r2,r2,r2
    31bc:	1085883a 	add	r2,r2,r2
    31c0:	1007883a 	mov	r3,r2
    31c4:	00802834 	movhi	r2,160
    31c8:	1885883a 	add	r2,r3,r2
    31cc:	10000035 	stwio	zero,0(r2)
							}

						} else {
							for (i = 411; i < 435; i++)
							{
								for (j = 0; j < 640; j++)
    31d0:	e0be0217 	ldw	r2,-2040(fp)
    31d4:	10800044 	addi	r2,r2,1
    31d8:	e0be0215 	stw	r2,-2040(fp)
    31dc:	e0be0217 	ldw	r2,-2040(fp)
    31e0:	1080a010 	cmplti	r2,r2,640
    31e4:	103ff01e 	bne	r2,zero,31a8 <main+0x19cc>
								put_vga_string("Message sent successfully.", 0, 26);
								current_line++;
							}

						} else {
							for (i = 411; i < 435; i++)
    31e8:	e0be0317 	ldw	r2,-2036(fp)
    31ec:	10800044 	addi	r2,r2,1
    31f0:	e0be0315 	stw	r2,-2036(fp)
    31f4:	e0be0317 	ldw	r2,-2036(fp)
    31f8:	10806cd0 	cmplti	r2,r2,435
    31fc:	103fe81e 	bne	r2,zero,31a0 <main+0x19c4>
								for (j = 0; j < 640; j++)
								{
									Vga_Clr_Pixel(VGA_0_BASE, j, i);
								}
							}
							put_vga_string("Failed to send message.", 0, 26);
    3200:	01000074 	movhi	r4,1
    3204:	211b8204 	addi	r4,r4,28168
    3208:	000b883a 	mov	r5,zero
    320c:	01800684 	movi	r6,26
    3210:	00011980 	call	1198 <put_vga_string>
						}
						// reset data
						for (curMsgChar=MAX_MSG_LENGTH_USER-1; curMsgChar>0; curMsgChar--) {
    3214:	e0bdf817 	ldw	r2,-2080(fp)
    3218:	10bfffc4 	addi	r2,r2,-1
    321c:	e0be0015 	stw	r2,-2048(fp)
    3220:	00000806 	br	3244 <main+0x1a68>
							UDP_PACKET_PAYLOAD[curMsgChar] = 0;
    3224:	e0fe0017 	ldw	r3,-2048(fp)
    3228:	00800074 	movhi	r2,1
    322c:	109fa084 	addi	r2,r2,32386
    3230:	1885883a 	add	r2,r3,r2
    3234:	10000005 	stb	zero,0(r2)
								}
							}
							put_vga_string("Failed to send message.", 0, 26);
						}
						// reset data
						for (curMsgChar=MAX_MSG_LENGTH_USER-1; curMsgChar>0; curMsgChar--) {
    3238:	e0be0017 	ldw	r2,-2048(fp)
    323c:	10bfffc4 	addi	r2,r2,-1
    3240:	e0be0015 	stw	r2,-2048(fp)
    3244:	e0be0017 	ldw	r2,-2048(fp)
    3248:	10800048 	cmpgei	r2,r2,1
    324c:	103ff51e 	bne	r2,zero,3224 <main+0x1a48>


						//___________________________________________________________________________________
						//Packet ID Counter...
						//___________________________________________________________________________________
						if (transmit_buffer[19] != 0xff)
    3250:	00800074 	movhi	r2,1
    3254:	109f9604 	addi	r2,r2,32344
    3258:	108004c3 	ldbu	r2,19(r2)
    325c:	10803fcc 	andi	r2,r2,255
    3260:	10803fe0 	cmpeqi	r2,r2,255
    3264:	1000091e 	bne	r2,zero,328c <main+0x1ab0>
						{
							transmit_buffer[19]++;
    3268:	00800074 	movhi	r2,1
    326c:	109f9604 	addi	r2,r2,32344
    3270:	108004c3 	ldbu	r2,19(r2)
    3274:	10800044 	addi	r2,r2,1
    3278:	1007883a 	mov	r3,r2
    327c:	00800074 	movhi	r2,1
    3280:	109f9604 	addi	r2,r2,32344
    3284:	10c004c5 	stb	r3,19(r2)
    3288:	00000b06 	br	32b8 <main+0x1adc>
						}
						else
						{
							transmit_buffer[18]++;
    328c:	00800074 	movhi	r2,1
    3290:	109f9604 	addi	r2,r2,32344
    3294:	10800483 	ldbu	r2,18(r2)
    3298:	10800044 	addi	r2,r2,1
    329c:	1007883a 	mov	r3,r2
    32a0:	00800074 	movhi	r2,1
    32a4:	109f9604 	addi	r2,r2,32344
    32a8:	10c00485 	stb	r3,18(r2)
							transmit_buffer[19] = 0x00;
    32ac:	00800074 	movhi	r2,1
    32b0:	109f9604 	addi	r2,r2,32344
    32b4:	100004c5 	stb	zero,19(r2)
						}
						printf ("\n %hX", transmit_buffer[18]);
    32b8:	00800074 	movhi	r2,1
    32bc:	109f9604 	addi	r2,r2,32344
    32c0:	10800483 	ldbu	r2,18(r2)
    32c4:	11403fcc 	andi	r5,r2,255
    32c8:	01000074 	movhi	r4,1
    32cc:	211b8804 	addi	r4,r4,28192
    32d0:	00050f40 	call	50f4 <printf>
						printf ("\n %hX \n", transmit_buffer[19]);
    32d4:	00800074 	movhi	r2,1
    32d8:	109f9604 	addi	r2,r2,32344
    32dc:	108004c3 	ldbu	r2,19(r2)
    32e0:	11403fcc 	andi	r5,r2,255
    32e4:	01000074 	movhi	r4,1
    32e8:	211b8a04 	addi	r4,r4,28200
    32ec:	00050f40 	call	50f4 <printf>
//
//
//
					}
					break;
    32f0:	003a0006 	br	1af4 <main+0x318>
				case 0x12:
				case 0x59:
				{
					shift = 1;
    32f4:	00800044 	movi	r2,1
    32f8:	e0bdf715 	stw	r2,-2084(fp)
				}
				break;
    32fc:	0039fd06 	br	1af4 <main+0x318>
				//___________________________________________________________________________________
				//Space Key...
				//___________________________________________________________________________________
				case 0x29:
					if (username_input == 1)
    3300:	e0bdfa17 	ldw	r2,-2072(fp)
    3304:	10800058 	cmpnei	r2,r2,1
    3308:	1000871e 	bne	r2,zero,3528 <main+0x1d4c>
					{
						if (userChar < 10)
    330c:	e0bdf917 	ldw	r2,-2076(fp)
    3310:	10800288 	cmpgei	r2,r2,10
    3314:	1039f71e 	bne	r2,zero,1af4 <main+0x318>
						{
							for (i = 411; i < 435; i++)
    3318:	008066c4 	movi	r2,411
    331c:	e0be0315 	stw	r2,-2036(fp)
    3320:	00001506 	br	3378 <main+0x1b9c>
							{
								for (j = 0; j < 640; j++)
    3324:	e03e0215 	stw	zero,-2040(fp)
    3328:	00000d06 	br	3360 <main+0x1b84>
								{
									Vga_Clr_Pixel(VGA_0_BASE, j, i);
    332c:	e0be0317 	ldw	r2,-2036(fp)
    3330:	10c0a024 	muli	r3,r2,640
    3334:	e0be0217 	ldw	r2,-2040(fp)
    3338:	1885883a 	add	r2,r3,r2
    333c:	1085883a 	add	r2,r2,r2
    3340:	1085883a 	add	r2,r2,r2
    3344:	1007883a 	mov	r3,r2
    3348:	00802834 	movhi	r2,160
    334c:	1885883a 	add	r2,r3,r2
    3350:	10000035 	stwio	zero,0(r2)
					{
						if (userChar < 10)
						{
							for (i = 411; i < 435; i++)
							{
								for (j = 0; j < 640; j++)
    3354:	e0be0217 	ldw	r2,-2040(fp)
    3358:	10800044 	addi	r2,r2,1
    335c:	e0be0215 	stw	r2,-2040(fp)
    3360:	e0be0217 	ldw	r2,-2040(fp)
    3364:	1080a010 	cmplti	r2,r2,640
    3368:	103ff01e 	bne	r2,zero,332c <main+0x1b50>
				case 0x29:
					if (username_input == 1)
					{
						if (userChar < 10)
						{
							for (i = 411; i < 435; i++)
    336c:	e0be0317 	ldw	r2,-2036(fp)
    3370:	10800044 	addi	r2,r2,1
    3374:	e0be0315 	stw	r2,-2036(fp)
    3378:	e0be0317 	ldw	r2,-2036(fp)
    337c:	10806cd0 	cmplti	r2,r2,435
    3380:	103fe81e 	bne	r2,zero,3324 <main+0x1b48>
								for (j = 0; j < 640; j++)
								{
									Vga_Clr_Pixel(VGA_0_BASE, j, i);
								}
							}
							for (i = userChar+1; i > cursor_x_char-26; i--)
    3384:	e0bdf917 	ldw	r2,-2076(fp)
    3388:	10800044 	addi	r2,r2,1
    338c:	e0be0315 	stw	r2,-2036(fp)
    3390:	00000c06 	br	33c4 <main+0x1be8>
							{
								username[i] = username[i-1];
    3394:	e13e0317 	ldw	r4,-2036(fp)
    3398:	e0be0317 	ldw	r2,-2036(fp)
    339c:	10ffffc4 	addi	r3,r2,-1
    33a0:	e0bfd844 	addi	r2,fp,-159
    33a4:	10c5883a 	add	r2,r2,r3
    33a8:	10c00003 	ldbu	r3,0(r2)
    33ac:	e0bfd844 	addi	r2,fp,-159
    33b0:	1105883a 	add	r2,r2,r4
    33b4:	10c00005 	stb	r3,0(r2)
								for (j = 0; j < 640; j++)
								{
									Vga_Clr_Pixel(VGA_0_BASE, j, i);
								}
							}
							for (i = userChar+1; i > cursor_x_char-26; i--)
    33b8:	e0be0317 	ldw	r2,-2036(fp)
    33bc:	10bfffc4 	addi	r2,r2,-1
    33c0:	e0be0315 	stw	r2,-2036(fp)
    33c4:	e0bdf517 	ldw	r2,-2092(fp)
    33c8:	10fff984 	addi	r3,r2,-26
    33cc:	e0be0317 	ldw	r2,-2036(fp)
    33d0:	18bff016 	blt	r3,r2,3394 <main+0x1bb8>
							{
								username[i] = username[i-1];
							}
							username[cursor_x_char-26] = ' ';
    33d4:	e0bdf517 	ldw	r2,-2092(fp)
    33d8:	10fff984 	addi	r3,r2,-26
    33dc:	e0bfd844 	addi	r2,fp,-159
    33e0:	10c7883a 	add	r3,r2,r3
    33e4:	00800804 	movi	r2,32
    33e8:	18800005 	stb	r2,0(r3)
							for (j = cursor_y; j < cursor_y+16; j++)
    33ec:	e0bdf417 	ldw	r2,-2096(fp)
    33f0:	e0be0215 	stw	r2,-2040(fp)
    33f4:	00000d06 	br	342c <main+0x1c50>
								Vga_Clr_Pixel(VGA_0_BASE, cursor_x, j);
    33f8:	e0be0217 	ldw	r2,-2040(fp)
    33fc:	10c0a024 	muli	r3,r2,640
    3400:	e0bdf617 	ldw	r2,-2088(fp)
    3404:	1885883a 	add	r2,r3,r2
    3408:	1085883a 	add	r2,r2,r2
    340c:	1085883a 	add	r2,r2,r2
    3410:	1007883a 	mov	r3,r2
    3414:	00802834 	movhi	r2,160
    3418:	1885883a 	add	r2,r3,r2
    341c:	10000035 	stwio	zero,0(r2)
							for (i = userChar+1; i > cursor_x_char-26; i--)
							{
								username[i] = username[i-1];
							}
							username[cursor_x_char-26] = ' ';
							for (j = cursor_y; j < cursor_y+16; j++)
    3420:	e0be0217 	ldw	r2,-2040(fp)
    3424:	10800044 	addi	r2,r2,1
    3428:	e0be0215 	stw	r2,-2040(fp)
    342c:	e0bdf417 	ldw	r2,-2096(fp)
    3430:	10c00404 	addi	r3,r2,16
    3434:	e0be0217 	ldw	r2,-2040(fp)
    3438:	10ffef16 	blt	r2,r3,33f8 <main+0x1c1c>
								Vga_Clr_Pixel(VGA_0_BASE, cursor_x, j);
							for (i = cursor_x_char-26; i < userChar+1; i++)
    343c:	e0bdf517 	ldw	r2,-2092(fp)
    3440:	10bff984 	addi	r2,r2,-26
    3444:	e0be0315 	stw	r2,-2036(fp)
    3448:	00000f06 	br	3488 <main+0x1cac>
								put_vga_char(username[i], i+26, 28);
    344c:	e0fe0317 	ldw	r3,-2036(fp)
    3450:	e0bfd844 	addi	r2,fp,-159
    3454:	10c5883a 	add	r2,r2,r3
    3458:	10800003 	ldbu	r2,0(r2)
    345c:	11003fcc 	andi	r4,r2,255
    3460:	2100201c 	xori	r4,r4,128
    3464:	213fe004 	addi	r4,r4,-128
    3468:	e0be0317 	ldw	r2,-2036(fp)
    346c:	10800684 	addi	r2,r2,26
    3470:	100b883a 	mov	r5,r2
    3474:	01800704 	movi	r6,28
    3478:	00010540 	call	1054 <put_vga_char>
								username[i] = username[i-1];
							}
							username[cursor_x_char-26] = ' ';
							for (j = cursor_y; j < cursor_y+16; j++)
								Vga_Clr_Pixel(VGA_0_BASE, cursor_x, j);
							for (i = cursor_x_char-26; i < userChar+1; i++)
    347c:	e0be0317 	ldw	r2,-2036(fp)
    3480:	10800044 	addi	r2,r2,1
    3484:	e0be0315 	stw	r2,-2036(fp)
    3488:	e0bdf917 	ldw	r2,-2076(fp)
    348c:	10c00044 	addi	r3,r2,1
    3490:	e0be0317 	ldw	r2,-2036(fp)
    3494:	10ffed16 	blt	r2,r3,344c <main+0x1c70>
								put_vga_char(username[i], i+26, 28);
							cursor_x_char++;
    3498:	e0bdf517 	ldw	r2,-2092(fp)
    349c:	10800044 	addi	r2,r2,1
    34a0:	e0bdf515 	stw	r2,-2092(fp)
							cursor_x = (cursor_x_char*8)-1;
    34a4:	e0bdf517 	ldw	r2,-2092(fp)
    34a8:	100490fa 	slli	r2,r2,3
    34ac:	10bfffc4 	addi	r2,r2,-1
    34b0:	e0bdf615 	stw	r2,-2088(fp)
							cursor_y = cursor_y_char*16;
    34b4:	e0bdf317 	ldw	r2,-2100(fp)
    34b8:	1004913a 	slli	r2,r2,4
    34bc:	e0bdf415 	stw	r2,-2096(fp)
							for (j = cursor_y; j < cursor_y+16; j++)
    34c0:	e0bdf417 	ldw	r2,-2096(fp)
    34c4:	e0be0215 	stw	r2,-2040(fp)
    34c8:	00000f06 	br	3508 <main+0x1d2c>
							{
								Vga_Set_Pixel(VGA_0_BASE, cursor_x, j);
    34cc:	e0be0217 	ldw	r2,-2040(fp)
    34d0:	10c0a024 	muli	r3,r2,640
    34d4:	e0bdf617 	ldw	r2,-2088(fp)
    34d8:	1885883a 	add	r2,r3,r2
    34dc:	1085883a 	add	r2,r2,r2
    34e0:	1085883a 	add	r2,r2,r2
    34e4:	1007883a 	mov	r3,r2
    34e8:	00802834 	movhi	r2,160
    34ec:	1885883a 	add	r2,r3,r2
    34f0:	1007883a 	mov	r3,r2
    34f4:	00800044 	movi	r2,1
    34f8:	18800035 	stwio	r2,0(r3)
							for (i = cursor_x_char-26; i < userChar+1; i++)
								put_vga_char(username[i], i+26, 28);
							cursor_x_char++;
							cursor_x = (cursor_x_char*8)-1;
							cursor_y = cursor_y_char*16;
							for (j = cursor_y; j < cursor_y+16; j++)
    34fc:	e0be0217 	ldw	r2,-2040(fp)
    3500:	10800044 	addi	r2,r2,1
    3504:	e0be0215 	stw	r2,-2040(fp)
    3508:	e0bdf417 	ldw	r2,-2096(fp)
    350c:	10c00404 	addi	r3,r2,16
    3510:	e0be0217 	ldw	r2,-2040(fp)
    3514:	10ffed16 	blt	r2,r3,34cc <main+0x1cf0>
							{
								Vga_Set_Pixel(VGA_0_BASE, cursor_x, j);
							}
							userChar++;
    3518:	e0bdf917 	ldw	r2,-2076(fp)
    351c:	10800044 	addi	r2,r2,1
    3520:	e0bdf915 	stw	r2,-2076(fp)
    3524:	00397306 	br	1af4 <main+0x318>
						}
					}
					else
					{
						if (curMsgChar < MAX_MSG_LENGTH_USER)
    3528:	e0fe0017 	ldw	r3,-2048(fp)
    352c:	e0bdf817 	ldw	r2,-2080(fp)
    3530:	18b9700e 	bge	r3,r2,1af4 <main+0x318>
						{
							if (cursor_y_char == 28)
    3534:	e0bdf317 	ldw	r2,-2100(fp)
    3538:	10800718 	cmpnei	r2,r2,28
    353c:	10001c1e 	bne	r2,zero,35b0 <main+0x1dd4>
							{
								for (i = curMsgChar+1; i > cursor_x_char-25; i--)
    3540:	e0be0017 	ldw	r2,-2048(fp)
    3544:	10800044 	addi	r2,r2,1
    3548:	e0be0315 	stw	r2,-2036(fp)
    354c:	00000d06 	br	3584 <main+0x1da8>
								{
									UDP_PACKET_PAYLOAD[i] = UDP_PACKET_PAYLOAD[i-1];
    3550:	e0fe0317 	ldw	r3,-2036(fp)
    3554:	00800074 	movhi	r2,1
    3558:	109fa084 	addi	r2,r2,32386
    355c:	1889883a 	add	r4,r3,r2
    3560:	e0fe0317 	ldw	r3,-2036(fp)
    3564:	00800074 	movhi	r2,1
    3568:	109fa044 	addi	r2,r2,32385
    356c:	1885883a 	add	r2,r3,r2
    3570:	10800003 	ldbu	r2,0(r2)
    3574:	20800005 	stb	r2,0(r4)
					{
						if (curMsgChar < MAX_MSG_LENGTH_USER)
						{
							if (cursor_y_char == 28)
							{
								for (i = curMsgChar+1; i > cursor_x_char-25; i--)
    3578:	e0be0317 	ldw	r2,-2036(fp)
    357c:	10bfffc4 	addi	r2,r2,-1
    3580:	e0be0315 	stw	r2,-2036(fp)
    3584:	e0bdf517 	ldw	r2,-2092(fp)
    3588:	10fff9c4 	addi	r3,r2,-25
    358c:	e0be0317 	ldw	r2,-2036(fp)
    3590:	18bfef16 	blt	r3,r2,3550 <main+0x1d74>
								{
									UDP_PACKET_PAYLOAD[i] = UDP_PACKET_PAYLOAD[i-1];
								}
								UDP_PACKET_PAYLOAD[cursor_x_char-25] = ' ';
    3594:	e0fdf517 	ldw	r3,-2092(fp)
    3598:	00800074 	movhi	r2,1
    359c:	109f9a44 	addi	r2,r2,32361
    35a0:	1887883a 	add	r3,r3,r2
    35a4:	00800804 	movi	r2,32
    35a8:	18800005 	stb	r2,0(r3)
    35ac:	00001e06 	br	3628 <main+0x1e4c>
							}
							else if (cursor_y_char == 29)
    35b0:	e0bdf317 	ldw	r2,-2100(fp)
    35b4:	10800758 	cmpnei	r2,r2,29
    35b8:	10001b1e 	bne	r2,zero,3628 <main+0x1e4c>
							{
								for (i = curMsgChar+1; i > cursor_x_char+52; i--)
    35bc:	e0be0017 	ldw	r2,-2048(fp)
    35c0:	10800044 	addi	r2,r2,1
    35c4:	e0be0315 	stw	r2,-2036(fp)
    35c8:	00000d06 	br	3600 <main+0x1e24>
								{
									UDP_PACKET_PAYLOAD[i] = UDP_PACKET_PAYLOAD[i-1];
    35cc:	e0fe0317 	ldw	r3,-2036(fp)
    35d0:	00800074 	movhi	r2,1
    35d4:	109fa084 	addi	r2,r2,32386
    35d8:	1889883a 	add	r4,r3,r2
    35dc:	e0fe0317 	ldw	r3,-2036(fp)
    35e0:	00800074 	movhi	r2,1
    35e4:	109fa044 	addi	r2,r2,32385
    35e8:	1885883a 	add	r2,r3,r2
    35ec:	10800003 	ldbu	r2,0(r2)
    35f0:	20800005 	stb	r2,0(r4)
								}
								UDP_PACKET_PAYLOAD[cursor_x_char-25] = ' ';
							}
							else if (cursor_y_char == 29)
							{
								for (i = curMsgChar+1; i > cursor_x_char+52; i--)
    35f4:	e0be0317 	ldw	r2,-2036(fp)
    35f8:	10bfffc4 	addi	r2,r2,-1
    35fc:	e0be0315 	stw	r2,-2036(fp)
    3600:	e0bdf517 	ldw	r2,-2092(fp)
    3604:	10c00d04 	addi	r3,r2,52
    3608:	e0be0317 	ldw	r2,-2036(fp)
    360c:	18bfef16 	blt	r3,r2,35cc <main+0x1df0>
								{
									UDP_PACKET_PAYLOAD[i] = UDP_PACKET_PAYLOAD[i-1];
								}
								UDP_PACKET_PAYLOAD[cursor_x_char+53] = ' ';
    3610:	e0fdf517 	ldw	r3,-2092(fp)
    3614:	00800074 	movhi	r2,1
    3618:	109fadc4 	addi	r2,r2,32439
    361c:	1887883a 	add	r3,r3,r2
    3620:	00800804 	movi	r2,32
    3624:	18800005 	stb	r2,0(r3)
							}
							for (j = cursor_y; j < cursor_y+16; j++)
    3628:	e0bdf417 	ldw	r2,-2096(fp)
    362c:	e0be0215 	stw	r2,-2040(fp)
    3630:	00000d06 	br	3668 <main+0x1e8c>
								Vga_Clr_Pixel(VGA_0_BASE, cursor_x, j);
    3634:	e0be0217 	ldw	r2,-2040(fp)
    3638:	10c0a024 	muli	r3,r2,640
    363c:	e0bdf617 	ldw	r2,-2088(fp)
    3640:	1885883a 	add	r2,r3,r2
    3644:	1085883a 	add	r2,r2,r2
    3648:	1085883a 	add	r2,r2,r2
    364c:	1007883a 	mov	r3,r2
    3650:	00802834 	movhi	r2,160
    3654:	1885883a 	add	r2,r3,r2
    3658:	10000035 	stwio	zero,0(r2)
								{
									UDP_PACKET_PAYLOAD[i] = UDP_PACKET_PAYLOAD[i-1];
								}
								UDP_PACKET_PAYLOAD[cursor_x_char+53] = ' ';
							}
							for (j = cursor_y; j < cursor_y+16; j++)
    365c:	e0be0217 	ldw	r2,-2040(fp)
    3660:	10800044 	addi	r2,r2,1
    3664:	e0be0215 	stw	r2,-2040(fp)
    3668:	e0bdf417 	ldw	r2,-2096(fp)
    366c:	10c00404 	addi	r3,r2,16
    3670:	e0be0217 	ldw	r2,-2040(fp)
    3674:	10ffef16 	blt	r2,r3,3634 <main+0x1e58>
								Vga_Clr_Pixel(VGA_0_BASE, cursor_x, j);
							if (curMsgLine == 28 && cursor_y_char == 28)
    3678:	e0bdfe17 	ldw	r2,-2056(fp)
    367c:	10800718 	cmpnei	r2,r2,28
    3680:	10001b1e 	bne	r2,zero,36f0 <main+0x1f14>
    3684:	e0bdf317 	ldw	r2,-2100(fp)
    3688:	10800718 	cmpnei	r2,r2,28
    368c:	1000181e 	bne	r2,zero,36f0 <main+0x1f14>
							{
								for (i = cursor_x_char-25; i < curMsgChar+1; i++)
    3690:	e0bdf517 	ldw	r2,-2092(fp)
    3694:	10bff9c4 	addi	r2,r2,-25
    3698:	e0be0315 	stw	r2,-2036(fp)
    369c:	00001006 	br	36e0 <main+0x1f04>
									put_vga_char(UDP_PACKET_PAYLOAD[i], i+25, cursor_y_char);
    36a0:	e0fe0317 	ldw	r3,-2036(fp)
    36a4:	00800074 	movhi	r2,1
    36a8:	109fa084 	addi	r2,r2,32386
    36ac:	1885883a 	add	r2,r3,r2
    36b0:	10800003 	ldbu	r2,0(r2)
    36b4:	11003fcc 	andi	r4,r2,255
    36b8:	2100201c 	xori	r4,r4,128
    36bc:	213fe004 	addi	r4,r4,-128
    36c0:	e0be0317 	ldw	r2,-2036(fp)
    36c4:	10800644 	addi	r2,r2,25
    36c8:	100b883a 	mov	r5,r2
    36cc:	e1bdf317 	ldw	r6,-2100(fp)
    36d0:	00010540 	call	1054 <put_vga_char>
							}
							for (j = cursor_y; j < cursor_y+16; j++)
								Vga_Clr_Pixel(VGA_0_BASE, cursor_x, j);
							if (curMsgLine == 28 && cursor_y_char == 28)
							{
								for (i = cursor_x_char-25; i < curMsgChar+1; i++)
    36d4:	e0be0317 	ldw	r2,-2036(fp)
    36d8:	10800044 	addi	r2,r2,1
    36dc:	e0be0315 	stw	r2,-2036(fp)
    36e0:	e0be0017 	ldw	r2,-2048(fp)
    36e4:	10c00044 	addi	r3,r2,1
    36e8:	e0be0317 	ldw	r2,-2036(fp)
    36ec:	10ffec16 	blt	r2,r3,36a0 <main+0x1ec4>
									put_vga_char(UDP_PACKET_PAYLOAD[i], i+25, cursor_y_char);
							}
							if (curMsgLine == 29 && cursor_y_char == 28)
    36f0:	e0bdfe17 	ldw	r2,-2056(fp)
    36f4:	10800758 	cmpnei	r2,r2,29
    36f8:	10002f1e 	bne	r2,zero,37b8 <main+0x1fdc>
    36fc:	e0bdf317 	ldw	r2,-2100(fp)
    3700:	10800718 	cmpnei	r2,r2,28
    3704:	10002c1e 	bne	r2,zero,37b8 <main+0x1fdc>
							{
								for (i = cursor_x_char-25; i < 53; i++)
    3708:	e0bdf517 	ldw	r2,-2092(fp)
    370c:	10bff9c4 	addi	r2,r2,-25
    3710:	e0be0315 	stw	r2,-2036(fp)
    3714:	00001006 	br	3758 <main+0x1f7c>
									put_vga_char(UDP_PACKET_PAYLOAD[i], i+25, cursor_y_char);
    3718:	e0fe0317 	ldw	r3,-2036(fp)
    371c:	00800074 	movhi	r2,1
    3720:	109fa084 	addi	r2,r2,32386
    3724:	1885883a 	add	r2,r3,r2
    3728:	10800003 	ldbu	r2,0(r2)
    372c:	11003fcc 	andi	r4,r2,255
    3730:	2100201c 	xori	r4,r4,128
    3734:	213fe004 	addi	r4,r4,-128
    3738:	e0be0317 	ldw	r2,-2036(fp)
    373c:	10800644 	addi	r2,r2,25
    3740:	100b883a 	mov	r5,r2
    3744:	e1bdf317 	ldw	r6,-2100(fp)
    3748:	00010540 	call	1054 <put_vga_char>
								for (i = cursor_x_char-25; i < curMsgChar+1; i++)
									put_vga_char(UDP_PACKET_PAYLOAD[i], i+25, cursor_y_char);
							}
							if (curMsgLine == 29 && cursor_y_char == 28)
							{
								for (i = cursor_x_char-25; i < 53; i++)
    374c:	e0be0317 	ldw	r2,-2036(fp)
    3750:	10800044 	addi	r2,r2,1
    3754:	e0be0315 	stw	r2,-2036(fp)
    3758:	e0be0317 	ldw	r2,-2036(fp)
    375c:	10800d50 	cmplti	r2,r2,53
    3760:	103fed1e 	bne	r2,zero,3718 <main+0x1f3c>
									put_vga_char(UDP_PACKET_PAYLOAD[i], i+25, cursor_y_char);
								for (i = 0; i < curMsgChar+1-53; i++)
    3764:	e03e0315 	stw	zero,-2036(fp)
    3768:	00000e06 	br	37a4 <main+0x1fc8>
									put_vga_char(UDP_PACKET_PAYLOAD[i+53], i, curMsgLine);
    376c:	e0fe0317 	ldw	r3,-2036(fp)
    3770:	00800074 	movhi	r2,1
    3774:	109fadc4 	addi	r2,r2,32439
    3778:	1885883a 	add	r2,r3,r2
    377c:	10800003 	ldbu	r2,0(r2)
    3780:	11003fcc 	andi	r4,r2,255
    3784:	2100201c 	xori	r4,r4,128
    3788:	213fe004 	addi	r4,r4,-128
    378c:	e17e0317 	ldw	r5,-2036(fp)
    3790:	e1bdfe17 	ldw	r6,-2056(fp)
    3794:	00010540 	call	1054 <put_vga_char>
							}
							if (curMsgLine == 29 && cursor_y_char == 28)
							{
								for (i = cursor_x_char-25; i < 53; i++)
									put_vga_char(UDP_PACKET_PAYLOAD[i], i+25, cursor_y_char);
								for (i = 0; i < curMsgChar+1-53; i++)
    3798:	e0be0317 	ldw	r2,-2036(fp)
    379c:	10800044 	addi	r2,r2,1
    37a0:	e0be0315 	stw	r2,-2036(fp)
    37a4:	e0be0017 	ldw	r2,-2048(fp)
    37a8:	10fff304 	addi	r3,r2,-52
    37ac:	e0be0317 	ldw	r2,-2036(fp)
    37b0:	10ffee16 	blt	r2,r3,376c <main+0x1f90>
							if (curMsgLine == 28 && cursor_y_char == 28)
							{
								for (i = cursor_x_char-25; i < curMsgChar+1; i++)
									put_vga_char(UDP_PACKET_PAYLOAD[i], i+25, cursor_y_char);
							}
							if (curMsgLine == 29 && cursor_y_char == 28)
    37b4:	00001b06 	br	3824 <main+0x2048>
								for (i = cursor_x_char-25; i < 53; i++)
									put_vga_char(UDP_PACKET_PAYLOAD[i], i+25, cursor_y_char);
								for (i = 0; i < curMsgChar+1-53; i++)
									put_vga_char(UDP_PACKET_PAYLOAD[i+53], i, curMsgLine);
							}
							else if (curMsgLine == 29 && cursor_y_char == 29)
    37b8:	e0bdfe17 	ldw	r2,-2056(fp)
    37bc:	10800758 	cmpnei	r2,r2,29
    37c0:	1000181e 	bne	r2,zero,3824 <main+0x2048>
    37c4:	e0bdf317 	ldw	r2,-2100(fp)
    37c8:	10800758 	cmpnei	r2,r2,29
    37cc:	1000151e 	bne	r2,zero,3824 <main+0x2048>
							{
								for (i = cursor_x_char; i < curMsgChar+1-53; i++)
    37d0:	e0bdf517 	ldw	r2,-2092(fp)
    37d4:	e0be0315 	stw	r2,-2036(fp)
    37d8:	00000e06 	br	3814 <main+0x2038>
									put_vga_char(UDP_PACKET_PAYLOAD[i+53], i, cursor_y_char);
    37dc:	e0fe0317 	ldw	r3,-2036(fp)
    37e0:	00800074 	movhi	r2,1
    37e4:	109fadc4 	addi	r2,r2,32439
    37e8:	1885883a 	add	r2,r3,r2
    37ec:	10800003 	ldbu	r2,0(r2)
    37f0:	11003fcc 	andi	r4,r2,255
    37f4:	2100201c 	xori	r4,r4,128
    37f8:	213fe004 	addi	r4,r4,-128
    37fc:	e17e0317 	ldw	r5,-2036(fp)
    3800:	e1bdf317 	ldw	r6,-2100(fp)
    3804:	00010540 	call	1054 <put_vga_char>
								for (i = 0; i < curMsgChar+1-53; i++)
									put_vga_char(UDP_PACKET_PAYLOAD[i+53], i, curMsgLine);
							}
							else if (curMsgLine == 29 && cursor_y_char == 29)
							{
								for (i = cursor_x_char; i < curMsgChar+1-53; i++)
    3808:	e0be0317 	ldw	r2,-2036(fp)
    380c:	10800044 	addi	r2,r2,1
    3810:	e0be0315 	stw	r2,-2036(fp)
    3814:	e0be0017 	ldw	r2,-2048(fp)
    3818:	10fff304 	addi	r3,r2,-52
    381c:	e0be0317 	ldw	r2,-2036(fp)
    3820:	10ffee16 	blt	r2,r3,37dc <main+0x2000>
									put_vga_char(UDP_PACKET_PAYLOAD[i+53], i, cursor_y_char);
							}
							cursor_x_char++;
    3824:	e0bdf517 	ldw	r2,-2092(fp)
    3828:	10800044 	addi	r2,r2,1
    382c:	e0bdf515 	stw	r2,-2092(fp)
							cursor_x = (cursor_x_char*8)-1;
    3830:	e0bdf517 	ldw	r2,-2092(fp)
    3834:	100490fa 	slli	r2,r2,3
    3838:	10bfffc4 	addi	r2,r2,-1
    383c:	e0bdf615 	stw	r2,-2088(fp)
							cursor_y = cursor_y_char*16;
    3840:	e0bdf317 	ldw	r2,-2100(fp)
    3844:	1004913a 	slli	r2,r2,4
    3848:	e0bdf415 	stw	r2,-2096(fp)
							for (j = cursor_y; j < cursor_y+16; j++)
    384c:	e0bdf417 	ldw	r2,-2096(fp)
    3850:	e0be0215 	stw	r2,-2040(fp)
    3854:	00000f06 	br	3894 <main+0x20b8>
							{
								Vga_Set_Pixel(VGA_0_BASE, cursor_x, j);
    3858:	e0be0217 	ldw	r2,-2040(fp)
    385c:	10c0a024 	muli	r3,r2,640
    3860:	e0bdf617 	ldw	r2,-2088(fp)
    3864:	1885883a 	add	r2,r3,r2
    3868:	1085883a 	add	r2,r2,r2
    386c:	1085883a 	add	r2,r2,r2
    3870:	1007883a 	mov	r3,r2
    3874:	00802834 	movhi	r2,160
    3878:	1885883a 	add	r2,r3,r2
    387c:	1007883a 	mov	r3,r2
    3880:	00800044 	movi	r2,1
    3884:	18800035 	stwio	r2,0(r3)
									put_vga_char(UDP_PACKET_PAYLOAD[i+53], i, cursor_y_char);
							}
							cursor_x_char++;
							cursor_x = (cursor_x_char*8)-1;
							cursor_y = cursor_y_char*16;
							for (j = cursor_y; j < cursor_y+16; j++)
    3888:	e0be0217 	ldw	r2,-2040(fp)
    388c:	10800044 	addi	r2,r2,1
    3890:	e0be0215 	stw	r2,-2040(fp)
    3894:	e0bdf417 	ldw	r2,-2096(fp)
    3898:	10c00404 	addi	r3,r2,16
    389c:	e0be0217 	ldw	r2,-2040(fp)
    38a0:	10ffed16 	blt	r2,r3,3858 <main+0x207c>
							{
								Vga_Set_Pixel(VGA_0_BASE, cursor_x, j);
							}
							curMsgChar++;
    38a4:	e0be0017 	ldw	r2,-2048(fp)
    38a8:	10800044 	addi	r2,r2,1
    38ac:	e0be0015 	stw	r2,-2048(fp)
							curLineChar++;
    38b0:	e0bdff17 	ldw	r2,-2052(fp)
    38b4:	10800044 	addi	r2,r2,1
    38b8:	e0bdff15 	stw	r2,-2052(fp)
							if (cursor_x_char == 78 && cursor_y_char == 28)
    38bc:	e0bdf517 	ldw	r2,-2092(fp)
    38c0:	10801398 	cmpnei	r2,r2,78
    38c4:	1000061e 	bne	r2,zero,38e0 <main+0x2104>
    38c8:	e0bdf317 	ldw	r2,-2100(fp)
    38cc:	10800718 	cmpnei	r2,r2,28
    38d0:	1000031e 	bne	r2,zero,38e0 <main+0x2104>
							{
								cursor_x_char = 0;
    38d4:	e03df515 	stw	zero,-2092(fp)
								cursor_y_char = 29;
    38d8:	00800744 	movi	r2,29
    38dc:	e0bdf315 	stw	r2,-2100(fp)
							}
							if (curLineChar == 78) {
    38e0:	e0bdff17 	ldw	r2,-2052(fp)
    38e4:	10801398 	cmpnei	r2,r2,78
    38e8:	1000041e 	bne	r2,zero,38fc <main+0x2120>
								curLineChar = 0;
    38ec:	e03dff15 	stw	zero,-2052(fp)
								curMsgLine = curMsgLine + 1;
    38f0:	e0bdfe17 	ldw	r2,-2056(fp)
    38f4:	10800044 	addi	r2,r2,1
    38f8:	e0bdfe15 	stw	r2,-2056(fp)
							}
							if (curMsgChar == 1) {
    38fc:	e0be0017 	ldw	r2,-2048(fp)
    3900:	10800058 	cmpnei	r2,r2,1
    3904:	10387b1e 	bne	r2,zero,1af4 <main+0x318>
								for (i = 411; i < 435; i++)
    3908:	008066c4 	movi	r2,411
    390c:	e0be0315 	stw	r2,-2036(fp)
    3910:	00001506 	br	3968 <main+0x218c>
								{
									for (j = 0; j < 640; j++)
    3914:	e03e0215 	stw	zero,-2040(fp)
    3918:	00000d06 	br	3950 <main+0x2174>
									{
										Vga_Clr_Pixel(VGA_0_BASE, j, i);
    391c:	e0be0317 	ldw	r2,-2036(fp)
    3920:	10c0a024 	muli	r3,r2,640
    3924:	e0be0217 	ldw	r2,-2040(fp)
    3928:	1885883a 	add	r2,r3,r2
    392c:	1085883a 	add	r2,r2,r2
    3930:	1085883a 	add	r2,r2,r2
    3934:	1007883a 	mov	r3,r2
    3938:	00802834 	movhi	r2,160
    393c:	1885883a 	add	r2,r3,r2
    3940:	10000035 	stwio	zero,0(r2)
								curMsgLine = curMsgLine + 1;
							}
							if (curMsgChar == 1) {
								for (i = 411; i < 435; i++)
								{
									for (j = 0; j < 640; j++)
    3944:	e0be0217 	ldw	r2,-2040(fp)
    3948:	10800044 	addi	r2,r2,1
    394c:	e0be0215 	stw	r2,-2040(fp)
    3950:	e0be0217 	ldw	r2,-2040(fp)
    3954:	1080a010 	cmplti	r2,r2,640
    3958:	103ff01e 	bne	r2,zero,391c <main+0x2140>
							if (curLineChar == 78) {
								curLineChar = 0;
								curMsgLine = curMsgLine + 1;
							}
							if (curMsgChar == 1) {
								for (i = 411; i < 435; i++)
    395c:	e0be0317 	ldw	r2,-2036(fp)
    3960:	10800044 	addi	r2,r2,1
    3964:	e0be0315 	stw	r2,-2036(fp)
    3968:	e0be0317 	ldw	r2,-2036(fp)
    396c:	10806cd0 	cmplti	r2,r2,435
    3970:	103fe81e 	bne	r2,zero,3914 <main+0x2138>
					//						}
					//					}

					//
					//
					break;
    3974:	00385f06 	br	1af4 <main+0x318>
					//___________________________________________________________________________________
					//Backspace Key...
					//___________________________________________________________________________________
				case 0x66:
					if (username_input == 1)
    3978:	e0bdfa17 	ldw	r2,-2072(fp)
    397c:	10800058 	cmpnei	r2,r2,1
    3980:	1000851e 	bne	r2,zero,3b98 <main+0x23bc>
					{
						if (userChar != 0)
    3984:	e0bdf917 	ldw	r2,-2076(fp)
    3988:	1005003a 	cmpeq	r2,r2,zero
    398c:	1038591e 	bne	r2,zero,1af4 <main+0x318>
						{
							for (i = 411; i < 435; i++)
    3990:	008066c4 	movi	r2,411
    3994:	e0be0315 	stw	r2,-2036(fp)
    3998:	00001506 	br	39f0 <main+0x2214>
							{
								for (j = 0; j < 640; j++)
    399c:	e03e0215 	stw	zero,-2040(fp)
    39a0:	00000d06 	br	39d8 <main+0x21fc>
								{
									Vga_Clr_Pixel(VGA_0_BASE, j, i);
    39a4:	e0be0317 	ldw	r2,-2036(fp)
    39a8:	10c0a024 	muli	r3,r2,640
    39ac:	e0be0217 	ldw	r2,-2040(fp)
    39b0:	1885883a 	add	r2,r3,r2
    39b4:	1085883a 	add	r2,r2,r2
    39b8:	1085883a 	add	r2,r2,r2
    39bc:	1007883a 	mov	r3,r2
    39c0:	00802834 	movhi	r2,160
    39c4:	1885883a 	add	r2,r3,r2
    39c8:	10000035 	stwio	zero,0(r2)
					{
						if (userChar != 0)
						{
							for (i = 411; i < 435; i++)
							{
								for (j = 0; j < 640; j++)
    39cc:	e0be0217 	ldw	r2,-2040(fp)
    39d0:	10800044 	addi	r2,r2,1
    39d4:	e0be0215 	stw	r2,-2040(fp)
    39d8:	e0be0217 	ldw	r2,-2040(fp)
    39dc:	1080a010 	cmplti	r2,r2,640
    39e0:	103ff01e 	bne	r2,zero,39a4 <main+0x21c8>
				case 0x66:
					if (username_input == 1)
					{
						if (userChar != 0)
						{
							for (i = 411; i < 435; i++)
    39e4:	e0be0317 	ldw	r2,-2036(fp)
    39e8:	10800044 	addi	r2,r2,1
    39ec:	e0be0315 	stw	r2,-2036(fp)
    39f0:	e0be0317 	ldw	r2,-2036(fp)
    39f4:	10806cd0 	cmplti	r2,r2,435
    39f8:	103fe81e 	bne	r2,zero,399c <main+0x21c0>
								for (j = 0; j < 640; j++)
								{
									Vga_Clr_Pixel(VGA_0_BASE, j, i);
								}
							}
							for (i = cursor_x_char-27; i < userChar; i++)
    39fc:	e0bdf517 	ldw	r2,-2092(fp)
    3a00:	10bff944 	addi	r2,r2,-27
    3a04:	e0be0315 	stw	r2,-2036(fp)
    3a08:	00000c06 	br	3a3c <main+0x2260>
							{
								username[i] = username[i+1];
    3a0c:	e13e0317 	ldw	r4,-2036(fp)
    3a10:	e0be0317 	ldw	r2,-2036(fp)
    3a14:	10c00044 	addi	r3,r2,1
    3a18:	e0bfd844 	addi	r2,fp,-159
    3a1c:	10c5883a 	add	r2,r2,r3
    3a20:	10c00003 	ldbu	r3,0(r2)
    3a24:	e0bfd844 	addi	r2,fp,-159
    3a28:	1105883a 	add	r2,r2,r4
    3a2c:	10c00005 	stb	r3,0(r2)
								for (j = 0; j < 640; j++)
								{
									Vga_Clr_Pixel(VGA_0_BASE, j, i);
								}
							}
							for (i = cursor_x_char-27; i < userChar; i++)
    3a30:	e0be0317 	ldw	r2,-2036(fp)
    3a34:	10800044 	addi	r2,r2,1
    3a38:	e0be0315 	stw	r2,-2036(fp)
    3a3c:	e0fe0317 	ldw	r3,-2036(fp)
    3a40:	e0bdf917 	ldw	r2,-2076(fp)
    3a44:	18bff116 	blt	r3,r2,3a0c <main+0x2230>
							{
								username[i] = username[i+1];
							}
							put_vga_char(' ', userChar+26-1, 28);
    3a48:	e0bdf917 	ldw	r2,-2076(fp)
    3a4c:	10800644 	addi	r2,r2,25
    3a50:	100b883a 	mov	r5,r2
    3a54:	01000804 	movi	r4,32
    3a58:	01800704 	movi	r6,28
    3a5c:	00010540 	call	1054 <put_vga_char>
							userChar--;
    3a60:	e0bdf917 	ldw	r2,-2076(fp)
    3a64:	10bfffc4 	addi	r2,r2,-1
    3a68:	e0bdf915 	stw	r2,-2076(fp)
							for (j = cursor_y; j < cursor_y+16; j++)
    3a6c:	e0bdf417 	ldw	r2,-2096(fp)
    3a70:	e0be0215 	stw	r2,-2040(fp)
    3a74:	00000d06 	br	3aac <main+0x22d0>
								Vga_Clr_Pixel(VGA_0_BASE, cursor_x, j);
    3a78:	e0be0217 	ldw	r2,-2040(fp)
    3a7c:	10c0a024 	muli	r3,r2,640
    3a80:	e0bdf617 	ldw	r2,-2088(fp)
    3a84:	1885883a 	add	r2,r3,r2
    3a88:	1085883a 	add	r2,r2,r2
    3a8c:	1085883a 	add	r2,r2,r2
    3a90:	1007883a 	mov	r3,r2
    3a94:	00802834 	movhi	r2,160
    3a98:	1885883a 	add	r2,r3,r2
    3a9c:	10000035 	stwio	zero,0(r2)
							{
								username[i] = username[i+1];
							}
							put_vga_char(' ', userChar+26-1, 28);
							userChar--;
							for (j = cursor_y; j < cursor_y+16; j++)
    3aa0:	e0be0217 	ldw	r2,-2040(fp)
    3aa4:	10800044 	addi	r2,r2,1
    3aa8:	e0be0215 	stw	r2,-2040(fp)
    3aac:	e0bdf417 	ldw	r2,-2096(fp)
    3ab0:	10c00404 	addi	r3,r2,16
    3ab4:	e0be0217 	ldw	r2,-2040(fp)
    3ab8:	10ffef16 	blt	r2,r3,3a78 <main+0x229c>
								Vga_Clr_Pixel(VGA_0_BASE, cursor_x, j);
							for (i = cursor_x_char-27; i < userChar; i++)
    3abc:	e0bdf517 	ldw	r2,-2092(fp)
    3ac0:	10bff944 	addi	r2,r2,-27
    3ac4:	e0be0315 	stw	r2,-2036(fp)
    3ac8:	00000f06 	br	3b08 <main+0x232c>
								put_vga_char(username[i], i+26, 28);
    3acc:	e0fe0317 	ldw	r3,-2036(fp)
    3ad0:	e0bfd844 	addi	r2,fp,-159
    3ad4:	10c5883a 	add	r2,r2,r3
    3ad8:	10800003 	ldbu	r2,0(r2)
    3adc:	11003fcc 	andi	r4,r2,255
    3ae0:	2100201c 	xori	r4,r4,128
    3ae4:	213fe004 	addi	r4,r4,-128
    3ae8:	e0be0317 	ldw	r2,-2036(fp)
    3aec:	10800684 	addi	r2,r2,26
    3af0:	100b883a 	mov	r5,r2
    3af4:	01800704 	movi	r6,28
    3af8:	00010540 	call	1054 <put_vga_char>
							}
							put_vga_char(' ', userChar+26-1, 28);
							userChar--;
							for (j = cursor_y; j < cursor_y+16; j++)
								Vga_Clr_Pixel(VGA_0_BASE, cursor_x, j);
							for (i = cursor_x_char-27; i < userChar; i++)
    3afc:	e0be0317 	ldw	r2,-2036(fp)
    3b00:	10800044 	addi	r2,r2,1
    3b04:	e0be0315 	stw	r2,-2036(fp)
    3b08:	e0fe0317 	ldw	r3,-2036(fp)
    3b0c:	e0bdf917 	ldw	r2,-2076(fp)
    3b10:	18bfee16 	blt	r3,r2,3acc <main+0x22f0>
								put_vga_char(username[i], i+26, 28);
							cursor_x_char--;
    3b14:	e0bdf517 	ldw	r2,-2092(fp)
    3b18:	10bfffc4 	addi	r2,r2,-1
    3b1c:	e0bdf515 	stw	r2,-2092(fp)
							cursor_x = (cursor_x_char*8)-1;
    3b20:	e0bdf517 	ldw	r2,-2092(fp)
    3b24:	100490fa 	slli	r2,r2,3
    3b28:	10bfffc4 	addi	r2,r2,-1
    3b2c:	e0bdf615 	stw	r2,-2088(fp)
							cursor_y = cursor_y_char*16;
    3b30:	e0bdf317 	ldw	r2,-2100(fp)
    3b34:	1004913a 	slli	r2,r2,4
    3b38:	e0bdf415 	stw	r2,-2096(fp)
							for (j = cursor_y; j < cursor_y+16; j++)
    3b3c:	e0bdf417 	ldw	r2,-2096(fp)
    3b40:	e0be0215 	stw	r2,-2040(fp)
    3b44:	00000f06 	br	3b84 <main+0x23a8>
							{
								Vga_Set_Pixel(VGA_0_BASE, cursor_x, j);
    3b48:	e0be0217 	ldw	r2,-2040(fp)
    3b4c:	10c0a024 	muli	r3,r2,640
    3b50:	e0bdf617 	ldw	r2,-2088(fp)
    3b54:	1885883a 	add	r2,r3,r2
    3b58:	1085883a 	add	r2,r2,r2
    3b5c:	1085883a 	add	r2,r2,r2
    3b60:	1007883a 	mov	r3,r2
    3b64:	00802834 	movhi	r2,160
    3b68:	1885883a 	add	r2,r3,r2
    3b6c:	1007883a 	mov	r3,r2
    3b70:	00800044 	movi	r2,1
    3b74:	18800035 	stwio	r2,0(r3)
							for (i = cursor_x_char-27; i < userChar; i++)
								put_vga_char(username[i], i+26, 28);
							cursor_x_char--;
							cursor_x = (cursor_x_char*8)-1;
							cursor_y = cursor_y_char*16;
							for (j = cursor_y; j < cursor_y+16; j++)
    3b78:	e0be0217 	ldw	r2,-2040(fp)
    3b7c:	10800044 	addi	r2,r2,1
    3b80:	e0be0215 	stw	r2,-2040(fp)
    3b84:	e0bdf417 	ldw	r2,-2096(fp)
    3b88:	10c00404 	addi	r3,r2,16
    3b8c:	e0be0217 	ldw	r2,-2040(fp)
    3b90:	10ffed16 	blt	r2,r3,3b48 <main+0x236c>
    3b94:	0037d706 	br	1af4 <main+0x318>
							}
						}
					}
					else
					{
						if (curMsgChar != 0)
    3b98:	e0be0017 	ldw	r2,-2048(fp)
    3b9c:	1005003a 	cmpeq	r2,r2,zero
    3ba0:	1037d41e 	bne	r2,zero,1af4 <main+0x318>
						{
							if (cursor_y_char == 28)
    3ba4:	e0bdf317 	ldw	r2,-2100(fp)
    3ba8:	10800718 	cmpnei	r2,r2,28
    3bac:	1000d21e 	bne	r2,zero,3ef8 <main+0x271c>
							{
								if (cursor_x_char != 25)
    3bb0:	e0bdf517 	ldw	r2,-2092(fp)
    3bb4:	10800660 	cmpeqi	r2,r2,25
    3bb8:	1037ce1e 	bne	r2,zero,1af4 <main+0x318>
								{
									for (i = cursor_x_char-26; i < curMsgChar-1; i++)
    3bbc:	e0bdf517 	ldw	r2,-2092(fp)
    3bc0:	10bff984 	addi	r2,r2,-26
    3bc4:	e0be0315 	stw	r2,-2036(fp)
    3bc8:	00000d06 	br	3c00 <main+0x2424>
									{
										UDP_PACKET_PAYLOAD[i] = UDP_PACKET_PAYLOAD[i+1];
    3bcc:	e0fe0317 	ldw	r3,-2036(fp)
    3bd0:	00800074 	movhi	r2,1
    3bd4:	109fa084 	addi	r2,r2,32386
    3bd8:	1889883a 	add	r4,r3,r2
    3bdc:	e0fe0317 	ldw	r3,-2036(fp)
    3be0:	00800074 	movhi	r2,1
    3be4:	109fa0c4 	addi	r2,r2,32387
    3be8:	1885883a 	add	r2,r3,r2
    3bec:	10800003 	ldbu	r2,0(r2)
    3bf0:	20800005 	stb	r2,0(r4)
						{
							if (cursor_y_char == 28)
							{
								if (cursor_x_char != 25)
								{
									for (i = cursor_x_char-26; i < curMsgChar-1; i++)
    3bf4:	e0be0317 	ldw	r2,-2036(fp)
    3bf8:	10800044 	addi	r2,r2,1
    3bfc:	e0be0315 	stw	r2,-2036(fp)
    3c00:	e0be0017 	ldw	r2,-2048(fp)
    3c04:	10ffffc4 	addi	r3,r2,-1
    3c08:	e0be0317 	ldw	r2,-2036(fp)
    3c0c:	10ffef16 	blt	r2,r3,3bcc <main+0x23f0>
									{
										UDP_PACKET_PAYLOAD[i] = UDP_PACKET_PAYLOAD[i+1];
									}
									if (curMsgLine == 28)
    3c10:	e0bdfe17 	ldw	r2,-2056(fp)
    3c14:	10800718 	cmpnei	r2,r2,28
    3c18:	10002e1e 	bne	r2,zero,3cd4 <main+0x24f8>
									{
										for (i = cursor_x_char-26; i < curMsgChar; i++)
    3c1c:	e0bdf517 	ldw	r2,-2092(fp)
    3c20:	10bff984 	addi	r2,r2,-26
    3c24:	e0be0315 	stw	r2,-2036(fp)
    3c28:	00001006 	br	3c6c <main+0x2490>
											put_vga_char(UDP_PACKET_PAYLOAD[i], i+25, 28);
    3c2c:	e0fe0317 	ldw	r3,-2036(fp)
    3c30:	00800074 	movhi	r2,1
    3c34:	109fa084 	addi	r2,r2,32386
    3c38:	1885883a 	add	r2,r3,r2
    3c3c:	10800003 	ldbu	r2,0(r2)
    3c40:	11003fcc 	andi	r4,r2,255
    3c44:	2100201c 	xori	r4,r4,128
    3c48:	213fe004 	addi	r4,r4,-128
    3c4c:	e0be0317 	ldw	r2,-2036(fp)
    3c50:	10800644 	addi	r2,r2,25
    3c54:	100b883a 	mov	r5,r2
    3c58:	01800704 	movi	r6,28
    3c5c:	00010540 	call	1054 <put_vga_char>
									{
										UDP_PACKET_PAYLOAD[i] = UDP_PACKET_PAYLOAD[i+1];
									}
									if (curMsgLine == 28)
									{
										for (i = cursor_x_char-26; i < curMsgChar; i++)
    3c60:	e0be0317 	ldw	r2,-2036(fp)
    3c64:	10800044 	addi	r2,r2,1
    3c68:	e0be0315 	stw	r2,-2036(fp)
    3c6c:	e0fe0317 	ldw	r3,-2036(fp)
    3c70:	e0be0017 	ldw	r2,-2048(fp)
    3c74:	18bfed16 	blt	r3,r2,3c2c <main+0x2450>
											put_vga_char(UDP_PACKET_PAYLOAD[i], i+25, 28);
										put_vga_char(' ', curMsgChar+25-1, 28);
    3c78:	e0be0017 	ldw	r2,-2048(fp)
    3c7c:	10800604 	addi	r2,r2,24
    3c80:	100b883a 	mov	r5,r2
    3c84:	01000804 	movi	r4,32
    3c88:	01800704 	movi	r6,28
    3c8c:	00010540 	call	1054 <put_vga_char>
										put_vga_char(' ', 0, 29);//ok
    3c90:	01000804 	movi	r4,32
    3c94:	000b883a 	mov	r5,zero
    3c98:	01800744 	movi	r6,29
    3c9c:	00010540 	call	1054 <put_vga_char>
										for (i = 78; i < 80; i++)//ok
    3ca0:	00801384 	movi	r2,78
    3ca4:	e0be0315 	stw	r2,-2036(fp)
    3ca8:	00000706 	br	3cc8 <main+0x24ec>
											put_vga_char(' ', i, 28);//ok
    3cac:	e17e0317 	ldw	r5,-2036(fp)
    3cb0:	01000804 	movi	r4,32
    3cb4:	01800704 	movi	r6,28
    3cb8:	00010540 	call	1054 <put_vga_char>
									{
										for (i = cursor_x_char-26; i < curMsgChar; i++)
											put_vga_char(UDP_PACKET_PAYLOAD[i], i+25, 28);
										put_vga_char(' ', curMsgChar+25-1, 28);
										put_vga_char(' ', 0, 29);//ok
										for (i = 78; i < 80; i++)//ok
    3cbc:	e0be0317 	ldw	r2,-2036(fp)
    3cc0:	10800044 	addi	r2,r2,1
    3cc4:	e0be0315 	stw	r2,-2036(fp)
    3cc8:	e0be0317 	ldw	r2,-2036(fp)
    3ccc:	10801410 	cmplti	r2,r2,80
    3cd0:	103ff61e 	bne	r2,zero,3cac <main+0x24d0>
											put_vga_char(' ', i, 28);//ok
									}
									if (curMsgLine == 29)
    3cd4:	e0bdfe17 	ldw	r2,-2056(fp)
    3cd8:	10800758 	cmpnei	r2,r2,29
    3cdc:	10004b1e 	bne	r2,zero,3e0c <main+0x2630>
									{
										//										for (i = cursor_x_char-26; i < 53; i++)
										//											put_vga_char(UDP_PACKET_PAYLOAD[i], i+25, 28);
										for (i = cursor_x_char-25-1; i < 53; i++)
    3ce0:	e0bdf517 	ldw	r2,-2092(fp)
    3ce4:	10bff984 	addi	r2,r2,-26
    3ce8:	e0be0315 	stw	r2,-2036(fp)
    3cec:	00001006 	br	3d30 <main+0x2554>
											put_vga_char(UDP_PACKET_PAYLOAD[i], i+25, 28);
    3cf0:	e0fe0317 	ldw	r3,-2036(fp)
    3cf4:	00800074 	movhi	r2,1
    3cf8:	109fa084 	addi	r2,r2,32386
    3cfc:	1885883a 	add	r2,r3,r2
    3d00:	10800003 	ldbu	r2,0(r2)
    3d04:	11003fcc 	andi	r4,r2,255
    3d08:	2100201c 	xori	r4,r4,128
    3d0c:	213fe004 	addi	r4,r4,-128
    3d10:	e0be0317 	ldw	r2,-2036(fp)
    3d14:	10800644 	addi	r2,r2,25
    3d18:	100b883a 	mov	r5,r2
    3d1c:	01800704 	movi	r6,28
    3d20:	00010540 	call	1054 <put_vga_char>
									}
									if (curMsgLine == 29)
									{
										//										for (i = cursor_x_char-26; i < 53; i++)
										//											put_vga_char(UDP_PACKET_PAYLOAD[i], i+25, 28);
										for (i = cursor_x_char-25-1; i < 53; i++)
    3d24:	e0be0317 	ldw	r2,-2036(fp)
    3d28:	10800044 	addi	r2,r2,1
    3d2c:	e0be0315 	stw	r2,-2036(fp)
    3d30:	e0be0317 	ldw	r2,-2036(fp)
    3d34:	10800d50 	cmplti	r2,r2,53
    3d38:	103fed1e 	bne	r2,zero,3cf0 <main+0x2514>
											put_vga_char(UDP_PACKET_PAYLOAD[i], i+25, 28);
										for (i = 0; i < curMsgChar-53; i++)//ok
    3d3c:	e03e0315 	stw	zero,-2036(fp)
    3d40:	00000e06 	br	3d7c <main+0x25a0>
											put_vga_char(UDP_PACKET_PAYLOAD[i+53], i, 29);//ok
    3d44:	e0fe0317 	ldw	r3,-2036(fp)
    3d48:	00800074 	movhi	r2,1
    3d4c:	109fadc4 	addi	r2,r2,32439
    3d50:	1885883a 	add	r2,r3,r2
    3d54:	10800003 	ldbu	r2,0(r2)
    3d58:	11003fcc 	andi	r4,r2,255
    3d5c:	2100201c 	xori	r4,r4,128
    3d60:	213fe004 	addi	r4,r4,-128
    3d64:	e17e0317 	ldw	r5,-2036(fp)
    3d68:	01800744 	movi	r6,29
    3d6c:	00010540 	call	1054 <put_vga_char>
									{
										//										for (i = cursor_x_char-26; i < 53; i++)
										//											put_vga_char(UDP_PACKET_PAYLOAD[i], i+25, 28);
										for (i = cursor_x_char-25-1; i < 53; i++)
											put_vga_char(UDP_PACKET_PAYLOAD[i], i+25, 28);
										for (i = 0; i < curMsgChar-53; i++)//ok
    3d70:	e0be0317 	ldw	r2,-2036(fp)
    3d74:	10800044 	addi	r2,r2,1
    3d78:	e0be0315 	stw	r2,-2036(fp)
    3d7c:	e0be0017 	ldw	r2,-2048(fp)
    3d80:	10fff2c4 	addi	r3,r2,-53
    3d84:	e0be0317 	ldw	r2,-2036(fp)
    3d88:	10ffee16 	blt	r2,r3,3d44 <main+0x2568>
											put_vga_char(UDP_PACKET_PAYLOAD[i+53], i, 29);//ok
										for (i = curMsgChar-53-1; i < 78; i++)//ok
    3d8c:	e0be0017 	ldw	r2,-2048(fp)
    3d90:	10bff284 	addi	r2,r2,-54
    3d94:	e0be0315 	stw	r2,-2036(fp)
    3d98:	00000706 	br	3db8 <main+0x25dc>
											put_vga_char(' ', i, 29);
    3d9c:	e17e0317 	ldw	r5,-2036(fp)
    3da0:	01000804 	movi	r4,32
    3da4:	01800744 	movi	r6,29
    3da8:	00010540 	call	1054 <put_vga_char>
										//											put_vga_char(UDP_PACKET_PAYLOAD[i], i+25, 28);
										for (i = cursor_x_char-25-1; i < 53; i++)
											put_vga_char(UDP_PACKET_PAYLOAD[i], i+25, 28);
										for (i = 0; i < curMsgChar-53; i++)//ok
											put_vga_char(UDP_PACKET_PAYLOAD[i+53], i, 29);//ok
										for (i = curMsgChar-53-1; i < 78; i++)//ok
    3dac:	e0be0317 	ldw	r2,-2036(fp)
    3db0:	10800044 	addi	r2,r2,1
    3db4:	e0be0315 	stw	r2,-2036(fp)
    3db8:	e0be0317 	ldw	r2,-2036(fp)
    3dbc:	10801390 	cmplti	r2,r2,78
    3dc0:	103ff61e 	bne	r2,zero,3d9c <main+0x25c0>
											put_vga_char(' ', i, 29);
										if (curMsgChar == 53)
    3dc4:	e0be0017 	ldw	r2,-2048(fp)
    3dc8:	10800d58 	cmpnei	r2,r2,53
    3dcc:	1000021e 	bne	r2,zero,3dd8 <main+0x25fc>
											curMsgLine = 28;
    3dd0:	00800704 	movi	r2,28
    3dd4:	e0bdfe15 	stw	r2,-2056(fp)
										for (i = 78; i < 80; i++)
    3dd8:	00801384 	movi	r2,78
    3ddc:	e0be0315 	stw	r2,-2036(fp)
    3de0:	00000706 	br	3e00 <main+0x2624>
											put_vga_char(' ', i, 28);
    3de4:	e17e0317 	ldw	r5,-2036(fp)
    3de8:	01000804 	movi	r4,32
    3dec:	01800704 	movi	r6,28
    3df0:	00010540 	call	1054 <put_vga_char>
											put_vga_char(UDP_PACKET_PAYLOAD[i+53], i, 29);//ok
										for (i = curMsgChar-53-1; i < 78; i++)//ok
											put_vga_char(' ', i, 29);
										if (curMsgChar == 53)
											curMsgLine = 28;
										for (i = 78; i < 80; i++)
    3df4:	e0be0317 	ldw	r2,-2036(fp)
    3df8:	10800044 	addi	r2,r2,1
    3dfc:	e0be0315 	stw	r2,-2036(fp)
    3e00:	e0be0317 	ldw	r2,-2036(fp)
    3e04:	10801410 	cmplti	r2,r2,80
    3e08:	103ff61e 	bne	r2,zero,3de4 <main+0x2608>
											put_vga_char(' ', i, 28);
									}
									curMsgChar--;
    3e0c:	e0be0017 	ldw	r2,-2048(fp)
    3e10:	10bfffc4 	addi	r2,r2,-1
    3e14:	e0be0015 	stw	r2,-2048(fp)
									curLineChar--;
    3e18:	e0bdff17 	ldw	r2,-2052(fp)
    3e1c:	10bfffc4 	addi	r2,r2,-1
    3e20:	e0bdff15 	stw	r2,-2052(fp)
									cursor_x_char--;
    3e24:	e0bdf517 	ldw	r2,-2092(fp)
    3e28:	10bfffc4 	addi	r2,r2,-1
    3e2c:	e0bdf515 	stw	r2,-2092(fp)
									for (j = cursor_y; j < cursor_y+16; j++)
    3e30:	e0bdf417 	ldw	r2,-2096(fp)
    3e34:	e0be0215 	stw	r2,-2040(fp)
    3e38:	00000d06 	br	3e70 <main+0x2694>
										Vga_Clr_Pixel(VGA_0_BASE, cursor_x, j);
    3e3c:	e0be0217 	ldw	r2,-2040(fp)
    3e40:	10c0a024 	muli	r3,r2,640
    3e44:	e0bdf617 	ldw	r2,-2088(fp)
    3e48:	1885883a 	add	r2,r3,r2
    3e4c:	1085883a 	add	r2,r2,r2
    3e50:	1085883a 	add	r2,r2,r2
    3e54:	1007883a 	mov	r3,r2
    3e58:	00802834 	movhi	r2,160
    3e5c:	1885883a 	add	r2,r3,r2
    3e60:	10000035 	stwio	zero,0(r2)
											put_vga_char(' ', i, 28);
									}
									curMsgChar--;
									curLineChar--;
									cursor_x_char--;
									for (j = cursor_y; j < cursor_y+16; j++)
    3e64:	e0be0217 	ldw	r2,-2040(fp)
    3e68:	10800044 	addi	r2,r2,1
    3e6c:	e0be0215 	stw	r2,-2040(fp)
    3e70:	e0bdf417 	ldw	r2,-2096(fp)
    3e74:	10c00404 	addi	r3,r2,16
    3e78:	e0be0217 	ldw	r2,-2040(fp)
    3e7c:	10ffef16 	blt	r2,r3,3e3c <main+0x2660>
										Vga_Clr_Pixel(VGA_0_BASE, cursor_x, j);
									//									for (i = cursor_x_char-26; i < curMsgChar; i++)
									//										put_vga_char(UDP_PACKET_PAYLOAD[i], i+25, 28);
									cursor_x = (cursor_x_char*8)-1;
    3e80:	e0bdf517 	ldw	r2,-2092(fp)
    3e84:	100490fa 	slli	r2,r2,3
    3e88:	10bfffc4 	addi	r2,r2,-1
    3e8c:	e0bdf615 	stw	r2,-2088(fp)
									cursor_y = cursor_y_char*16;
    3e90:	e0bdf317 	ldw	r2,-2100(fp)
    3e94:	1004913a 	slli	r2,r2,4
    3e98:	e0bdf415 	stw	r2,-2096(fp)
									for (j = cursor_y; j < cursor_y+16; j++)
    3e9c:	e0bdf417 	ldw	r2,-2096(fp)
    3ea0:	e0be0215 	stw	r2,-2040(fp)
    3ea4:	00000f06 	br	3ee4 <main+0x2708>
									{
										Vga_Set_Pixel(VGA_0_BASE, cursor_x, j);
    3ea8:	e0be0217 	ldw	r2,-2040(fp)
    3eac:	10c0a024 	muli	r3,r2,640
    3eb0:	e0bdf617 	ldw	r2,-2088(fp)
    3eb4:	1885883a 	add	r2,r3,r2
    3eb8:	1085883a 	add	r2,r2,r2
    3ebc:	1085883a 	add	r2,r2,r2
    3ec0:	1007883a 	mov	r3,r2
    3ec4:	00802834 	movhi	r2,160
    3ec8:	1885883a 	add	r2,r3,r2
    3ecc:	1007883a 	mov	r3,r2
    3ed0:	00800044 	movi	r2,1
    3ed4:	18800035 	stwio	r2,0(r3)
										Vga_Clr_Pixel(VGA_0_BASE, cursor_x, j);
									//									for (i = cursor_x_char-26; i < curMsgChar; i++)
									//										put_vga_char(UDP_PACKET_PAYLOAD[i], i+25, 28);
									cursor_x = (cursor_x_char*8)-1;
									cursor_y = cursor_y_char*16;
									for (j = cursor_y; j < cursor_y+16; j++)
    3ed8:	e0be0217 	ldw	r2,-2040(fp)
    3edc:	10800044 	addi	r2,r2,1
    3ee0:	e0be0215 	stw	r2,-2040(fp)
    3ee4:	e0bdf417 	ldw	r2,-2096(fp)
    3ee8:	10c00404 	addi	r3,r2,16
    3eec:	e0be0217 	ldw	r2,-2040(fp)
    3ef0:	10ffed16 	blt	r2,r3,3ea8 <main+0x26cc>
    3ef4:	0036ff06 	br	1af4 <main+0x318>
									}
								}
							}
							else
							{
								if (cursor_x_char != 0)
    3ef8:	e0bdf517 	ldw	r2,-2092(fp)
    3efc:	1005003a 	cmpeq	r2,r2,zero
    3f00:	10006c1e 	bne	r2,zero,40b4 <main+0x28d8>
								{
									for (i = cursor_x_char+52; i < curMsgChar; i++)
    3f04:	e0bdf517 	ldw	r2,-2092(fp)
    3f08:	10800d04 	addi	r2,r2,52
    3f0c:	e0be0315 	stw	r2,-2036(fp)
    3f10:	00000d06 	br	3f48 <main+0x276c>
									{
										UDP_PACKET_PAYLOAD[i] = UDP_PACKET_PAYLOAD[i+1];
    3f14:	e0fe0317 	ldw	r3,-2036(fp)
    3f18:	00800074 	movhi	r2,1
    3f1c:	109fa084 	addi	r2,r2,32386
    3f20:	1889883a 	add	r4,r3,r2
    3f24:	e0fe0317 	ldw	r3,-2036(fp)
    3f28:	00800074 	movhi	r2,1
    3f2c:	109fa0c4 	addi	r2,r2,32387
    3f30:	1885883a 	add	r2,r3,r2
    3f34:	10800003 	ldbu	r2,0(r2)
    3f38:	20800005 	stb	r2,0(r4)
							}
							else
							{
								if (cursor_x_char != 0)
								{
									for (i = cursor_x_char+52; i < curMsgChar; i++)
    3f3c:	e0be0317 	ldw	r2,-2036(fp)
    3f40:	10800044 	addi	r2,r2,1
    3f44:	e0be0315 	stw	r2,-2036(fp)
    3f48:	e0fe0317 	ldw	r3,-2036(fp)
    3f4c:	e0be0017 	ldw	r2,-2048(fp)
    3f50:	18bff016 	blt	r3,r2,3f14 <main+0x2738>
									{
										UDP_PACKET_PAYLOAD[i] = UDP_PACKET_PAYLOAD[i+1];
									}
									put_vga_char(' ', curMsgChar-54, 29);
    3f54:	e0be0017 	ldw	r2,-2048(fp)
    3f58:	10bff284 	addi	r2,r2,-54
    3f5c:	100b883a 	mov	r5,r2
    3f60:	01000804 	movi	r4,32
    3f64:	01800744 	movi	r6,29
    3f68:	00010540 	call	1054 <put_vga_char>
									for (j = cursor_y; j < cursor_y+16; j++)
    3f6c:	e0bdf417 	ldw	r2,-2096(fp)
    3f70:	e0be0215 	stw	r2,-2040(fp)
    3f74:	00000d06 	br	3fac <main+0x27d0>
										Vga_Clr_Pixel(VGA_0_BASE, cursor_x, j);
    3f78:	e0be0217 	ldw	r2,-2040(fp)
    3f7c:	10c0a024 	muli	r3,r2,640
    3f80:	e0bdf617 	ldw	r2,-2088(fp)
    3f84:	1885883a 	add	r2,r3,r2
    3f88:	1085883a 	add	r2,r2,r2
    3f8c:	1085883a 	add	r2,r2,r2
    3f90:	1007883a 	mov	r3,r2
    3f94:	00802834 	movhi	r2,160
    3f98:	1885883a 	add	r2,r3,r2
    3f9c:	10000035 	stwio	zero,0(r2)
									for (i = cursor_x_char+52; i < curMsgChar; i++)
									{
										UDP_PACKET_PAYLOAD[i] = UDP_PACKET_PAYLOAD[i+1];
									}
									put_vga_char(' ', curMsgChar-54, 29);
									for (j = cursor_y; j < cursor_y+16; j++)
    3fa0:	e0be0217 	ldw	r2,-2040(fp)
    3fa4:	10800044 	addi	r2,r2,1
    3fa8:	e0be0215 	stw	r2,-2040(fp)
    3fac:	e0bdf417 	ldw	r2,-2096(fp)
    3fb0:	10c00404 	addi	r3,r2,16
    3fb4:	e0be0217 	ldw	r2,-2040(fp)
    3fb8:	10ffef16 	blt	r2,r3,3f78 <main+0x279c>
										Vga_Clr_Pixel(VGA_0_BASE, cursor_x, j);
									for (i = cursor_x_char; i < curMsgChar-53; i++)//debugged
    3fbc:	e0bdf517 	ldw	r2,-2092(fp)
    3fc0:	e0be0315 	stw	r2,-2036(fp)
    3fc4:	00001006 	br	4008 <main+0x282c>
										put_vga_char(UDP_PACKET_PAYLOAD[i+53-1],i-1,29);
    3fc8:	e0fe0317 	ldw	r3,-2036(fp)
    3fcc:	00800074 	movhi	r2,1
    3fd0:	109fad84 	addi	r2,r2,32438
    3fd4:	1885883a 	add	r2,r3,r2
    3fd8:	10800003 	ldbu	r2,0(r2)
    3fdc:	11003fcc 	andi	r4,r2,255
    3fe0:	2100201c 	xori	r4,r4,128
    3fe4:	213fe004 	addi	r4,r4,-128
    3fe8:	e0be0317 	ldw	r2,-2036(fp)
    3fec:	10bfffc4 	addi	r2,r2,-1
    3ff0:	100b883a 	mov	r5,r2
    3ff4:	01800744 	movi	r6,29
    3ff8:	00010540 	call	1054 <put_vga_char>
										UDP_PACKET_PAYLOAD[i] = UDP_PACKET_PAYLOAD[i+1];
									}
									put_vga_char(' ', curMsgChar-54, 29);
									for (j = cursor_y; j < cursor_y+16; j++)
										Vga_Clr_Pixel(VGA_0_BASE, cursor_x, j);
									for (i = cursor_x_char; i < curMsgChar-53; i++)//debugged
    3ffc:	e0be0317 	ldw	r2,-2036(fp)
    4000:	10800044 	addi	r2,r2,1
    4004:	e0be0315 	stw	r2,-2036(fp)
    4008:	e0be0017 	ldw	r2,-2048(fp)
    400c:	10fff2c4 	addi	r3,r2,-53
    4010:	e0be0317 	ldw	r2,-2036(fp)
    4014:	10ffec16 	blt	r2,r3,3fc8 <main+0x27ec>
										put_vga_char(UDP_PACKET_PAYLOAD[i+53-1],i-1,29);
									curMsgChar--;
    4018:	e0be0017 	ldw	r2,-2048(fp)
    401c:	10bfffc4 	addi	r2,r2,-1
    4020:	e0be0015 	stw	r2,-2048(fp)
									curLineChar--;
    4024:	e0bdff17 	ldw	r2,-2052(fp)
    4028:	10bfffc4 	addi	r2,r2,-1
    402c:	e0bdff15 	stw	r2,-2052(fp)
									cursor_x_char--;
    4030:	e0bdf517 	ldw	r2,-2092(fp)
    4034:	10bfffc4 	addi	r2,r2,-1
    4038:	e0bdf515 	stw	r2,-2092(fp)
									cursor_x = (cursor_x_char*8)-1;
    403c:	e0bdf517 	ldw	r2,-2092(fp)
    4040:	100490fa 	slli	r2,r2,3
    4044:	10bfffc4 	addi	r2,r2,-1
    4048:	e0bdf615 	stw	r2,-2088(fp)
									cursor_y = cursor_y_char*16;
    404c:	e0bdf317 	ldw	r2,-2100(fp)
    4050:	1004913a 	slli	r2,r2,4
    4054:	e0bdf415 	stw	r2,-2096(fp)
